(dp0
S'MC_NUM_HighPtID_DEN_genTracks_PAR_newpt'
p1
(dp2
S'pair_ne_ratio'
p3
(dp4
S'pair:[120.0,200.0]'
p5
(dp6
S'value'
p7
F1.018271565437317
sS'error'
p8
F0.004462385416403513
ssS'pair:[21.0,25.0]'
p9
(dp10
g7
F0.9971592426300049
sg8
F0.0012694428326618821
ssS'pair:[55.0,60.0]'
p11
(dp12
g7
F0.9826275110244751
sg8
F0.0010526284613899969
ssS'pair:[25.0,30.0]'
p13
(dp14
g7
F0.9917864203453064
sg8
F0.0005847708972668607
ssS'pair:[30.0,40.0]'
p15
(dp16
g7
F0.9897130131721497
sg8
F0.0002099437379742019
ssS'pair:[40.0,50.0]'
p17
(dp18
g7
F0.9902443289756775
sg8
F0.00018987455046616145
ssS'pair:[50.0,55.0]'
p19
(dp20
g7
F0.9851170778274536
sg8
F0.0006294227868818559
ssS'pair:[60.0,120.0]'
p21
(dp22
g7
F0.9898500442504883
sg8
F0.0011768337001601874
ssssS'MC_NUM_TightID_DEN_genTracks_PAR_pt_eta'
p23
(dp24
S'pt_abseta_ratio'
p25
(dp26
S'pt:[25.0,30.0]'
p27
(dp28
S'abseta:[0.0,0.9]'
p29
(dp30
g7
F0.9869902729988098
sg8
F0.04631621089964616
ssS'abseta:[1.2,2.1]'
p31
(dp32
g7
F0.9909166693687439
sg8
F0.000941093394891012
ssS'abseta:[2.1,2.4]'
p33
(dp34
g7
F0.9791090488433838
sg8
F0.05328713366594566
ssS'abseta:[0.9,1.2]'
p35
(dp36
g7
F0.9846855998039246
sg8
F0.001699153531195133
sssS'pt:[30.0,40.0]'
p37
(dp38
S'abseta:[0.0,0.9]'
p39
(dp40
g7
F0.9875958561897278
sg8
F0.00036867133891300535
ssS'abseta:[1.2,2.1]'
p41
(dp42
g7
F0.9920662641525269
sg8
F0.020594153382911796
ssS'abseta:[2.1,2.4]'
p43
(dp44
g7
F0.9715262651443481
sg8
F0.0020419932839449385
ssS'abseta:[0.9,1.2]'
p45
(dp46
g7
F0.983914315700531
sg8
F0.0005999473409296527
sssS'pt:[60.0,120.0]'
p47
(dp48
S'abseta:[0.0,0.9]'
p49
(dp50
g7
F0.9913695454597473
sg8
F0.0016263424833169956
ssS'abseta:[1.2,2.1]'
p51
(dp52
g7
F0.9885839819908142
sg8
F0.002379737507928738
ssS'abseta:[2.1,2.4]'
p53
(dp54
g7
F0.9631988406181335
sg8
F0.005718057889309516
ssS'abseta:[0.9,1.2]'
p55
(dp56
g7
F0.9838792681694031
sg8
F0.0029682525831275677
sssS'pt:[20.0,25.0]'
p57
(dp58
S'abseta:[0.0,0.9]'
p59
(dp60
g7
F0.993173360824585
sg8
F0.002642465415622498
ssS'abseta:[1.2,2.1]'
p61
(dp62
g7
F0.9908626675605774
sg8
F0.0018708669397805781
ssS'abseta:[2.1,2.4]'
p63
(dp64
g7
F0.9815009832382202
sg8
F0.0030917059417141022
ssS'abseta:[0.9,1.2]'
p65
(dp66
g7
F0.9855960011482239
sg8
F0.015529273681547008
sssS'pt:[40.0,50.0]'
p67
(dp68
S'abseta:[0.0,0.9]'
p69
(dp70
g7
F0.9897767901420593
sg8
F0.00029982315925813544
ssS'abseta:[1.2,2.1]'
p71
(dp72
g7
F0.9938467741012573
sg8
F0.0002743875911420187
ssS'abseta:[2.1,2.4]'
p73
(dp74
g7
F0.9747756719589233
sg8
F0.006083264321644548
ssS'abseta:[0.9,1.2]'
p75
(dp76
g7
F0.9832648634910583
sg8
F0.0004668088983078352
sssS'pt:[50.0,60.0]'
p77
(dp78
S'abseta:[0.0,0.9]'
p79
(dp80
g7
F0.9847491979598999
sg8
F0.000785220205140585
ssS'abseta:[1.2,2.1]'
p81
(dp82
g7
F0.9856546521186829
sg8
F0.0010187891269158994
ssS'abseta:[2.1,2.4]'
p83
(dp84
g7
F0.9676512479782104
sg8
F0.0028166924891737948
ssS'abseta:[0.9,1.2]'
p85
(dp86
g7
F0.9805821180343628
sg8
F0.0014234636430097553
ssssS'abseta_pt_ratio'
p87
(dp88
S'abseta:[0.0,0.9]'
p89
(dp90
S'pt:[25.0,30.0]'
p91
(dp92
g7
F0.9869902729988098
sg8
F0.04631621089964616
ssS'pt:[30.0,40.0]'
p93
(dp94
g7
F0.9875958561897278
sg8
F0.00036867133891300535
ssS'pt:[60.0,120.0]'
p95
(dp96
g7
F0.9913695454597473
sg8
F0.0016263424833169956
ssS'pt:[20.0,25.0]'
p97
(dp98
g7
F0.993173360824585
sg8
F0.002642465415622498
ssS'pt:[40.0,50.0]'
p99
(dp100
g7
F0.9897767901420593
sg8
F0.00029982315925813544
ssS'pt:[50.0,60.0]'
p101
(dp102
g7
F0.9847491979598999
sg8
F0.000785220205140585
sssS'abseta:[1.2,2.1]'
p103
(dp104
S'pt:[25.0,30.0]'
p105
(dp106
g7
F0.9909166693687439
sg8
F0.000941093394891012
ssS'pt:[30.0,40.0]'
p107
(dp108
g7
F0.9920662641525269
sg8
F0.020594153382911796
ssS'pt:[60.0,120.0]'
p109
(dp110
g7
F0.9885839819908142
sg8
F0.002379737507928738
ssS'pt:[20.0,25.0]'
p111
(dp112
g7
F0.9908626675605774
sg8
F0.0018708669397805781
ssS'pt:[40.0,50.0]'
p113
(dp114
g7
F0.9938467741012573
sg8
F0.0002743875911420187
ssS'pt:[50.0,60.0]'
p115
(dp116
g7
F0.9856546521186829
sg8
F0.0010187891269158994
sssS'abseta:[2.1,2.4]'
p117
(dp118
S'pt:[25.0,30.0]'
p119
(dp120
g7
F0.9791090488433838
sg8
F0.05328713366594566
ssS'pt:[30.0,40.0]'
p121
(dp122
g7
F0.9715262651443481
sg8
F0.0020419932839449385
ssS'pt:[60.0,120.0]'
p123
(dp124
g7
F0.9631988406181335
sg8
F0.005718057889309516
ssS'pt:[20.0,25.0]'
p125
(dp126
g7
F0.9815009832382202
sg8
F0.0030917059417141022
ssS'pt:[40.0,50.0]'
p127
(dp128
g7
F0.9747756719589233
sg8
F0.006083264321644548
ssS'pt:[50.0,60.0]'
p129
(dp130
g7
F0.9676512479782104
sg8
F0.0028166924891737948
sssS'abseta:[0.9,1.2]'
p131
(dp132
S'pt:[25.0,30.0]'
p133
(dp134
g7
F0.9846855998039246
sg8
F0.001699153531195133
ssS'pt:[30.0,40.0]'
p135
(dp136
g7
F0.983914315700531
sg8
F0.0005999473409296527
ssS'pt:[60.0,120.0]'
p137
(dp138
g7
F0.9838792681694031
sg8
F0.0029682525831275677
ssS'pt:[20.0,25.0]'
p139
(dp140
g7
F0.9855960011482239
sg8
F0.015529273681547008
ssS'pt:[40.0,50.0]'
p141
(dp142
g7
F0.9832648634910583
sg8
F0.0004668088983078352
ssS'pt:[50.0,60.0]'
p143
(dp144
g7
F0.9805821180343628
sg8
F0.0014234636430097553
sssssS'MC_NUM_TightID_DEN_genTracks_PAR_pt'
p145
(dp146
S'pt_ratio'
p147
(dp148
S'pt:[25.0,30.0]'
p149
(dp150
g7
F0.9904654026031494
sg8
F0.000596569900777283
ssS'pt:[30.0,40.0]'
p151
(dp152
g7
F0.988422691822052
sg8
F0.00021728249894818833
ssS'pt:[60.0,120.0]'
p153
(dp154
g7
F0.9878608584403992
sg8
F0.0011935662962743682
ssS'pt:[120.0,200.0]'
p155
(dp156
g7
F1.024104356765747
sg8
F0.004748410933909913
ssS'pt:[20.0,25.0]'
p157
(dp158
g7
F0.9993929862976074
sg8
F0.0014002663472725886
ssS'pt:[40.0,50.0]'
p159
(dp160
g7
F0.9888803958892822
sg8
F0.00014509952096373736
ssS'pt:[50.0,60.0]'
p161
(dp162
g7
F0.9829232692718506
sg8
F0.0005567483877780508
ssssS'MC_NUM_HighPtID_DEN_genTracks_PAR_newpt_eta'
p163
(dp164
S'abseta_pair_ne_ratio'
p165
(dp166
S'abseta:[0.0,0.9]'
p167
(dp168
S'pair:[55.0,60.0]'
p169
(dp170
g7
F0.9843087792396545
sg8
F0.0014710045119560413
ssS'pair:[25.0,30.0]'
p171
(dp172
g7
F0.9880728721618652
sg8
F0.0011145123215681911
ssS'pair:[30.0,40.0]'
p173
(dp174
g7
F0.9885926246643066
sg8
F0.0004726090449869621
ssS'pair:[50.0,55.0]'
p175
(dp176
g7
F0.9868936538696289
sg8
F0.0009136270295133958
ssS'pair:[40.0,50.0]'
p177
(dp178
g7
F0.9907175898551941
sg8
F0.04143448020914492
ssS'pair:[60.0,120.0]'
p179
(dp180
g7
F0.9931981563568115
sg8
F0.0016014648960309915
ssS'pair:[20.0,25.0]'
p181
(dp182
g7
F0.9941470623016357
sg8
F0.0026321024912637756
sssS'abseta:[1.2,2.1]'
p183
(dp184
S'pair:[55.0,60.0]'
p185
(dp186
g7
F0.9843052625656128
sg8
F0.0019255382845296707
ssS'pair:[25.0,30.0]'
p187
(dp188
g7
F0.992093026638031
sg8
F0.002293302347056123
ssS'pair:[30.0,40.0]'
p189
(dp190
g7
F0.9931698441505432
sg8
F0.0005699257499285336
ssS'pair:[50.0,55.0]'
p191
(dp192
g7
F0.988702118396759
sg8
F0.018978726388560817
ssS'pair:[40.0,50.0]'
p193
(dp194
g7
F0.9923262596130371
sg8
F0.0003807550770759163
ssS'pair:[60.0,120.0]'
p195
(dp196
g7
F0.9906703233718872
sg8
F0.0070737498217392
ssS'pair:[20.0,25.0]'
p197
(dp198
g7
F0.9917210340499878
sg8
F0.0018567328193872573
sssS'abseta:[2.1,2.4]'
p199
(dp200
S'pair:[55.0,60.0]'
p201
(dp202
g7
F0.9691135287284851
sg8
F0.005093201155133272
ssS'pair:[25.0,30.0]'
p203
(dp204
g7
F0.9809628129005432
sg8
F0.04277233996724803
ssS'pair:[30.0,40.0]'
p205
(dp206
g7
F0.9742339849472046
sg8
F0.0016059542149556502
ssS'pair:[50.0,55.0]'
p207
(dp208
g7
F0.971699595451355
sg8
F0.0029973535063424392
ssS'pair:[40.0,50.0]'
p209
(dp210
g7
F0.9797398447990417
sg8
F0.0007888390266390101
ssS'pair:[60.0,120.0]'
p211
(dp212
g7
F0.9698559045791626
sg8
F0.005514830808282379
ssS'pair:[20.0,25.0]'
p213
(dp214
g7
F0.9838207960128784
sg8
F0.002932129486220962
sssS'abseta:[0.9,1.2]'
p215
(dp216
S'pair:[55.0,60.0]'
p217
(dp218
g7
F0.9818939566612244
sg8
F0.007318425628926333
ssS'pair:[25.0,30.0]'
p219
(dp220
g7
F0.9865238070487976
sg8
F0.03766199916733903
ssS'pair:[30.0,40.0]'
p221
(dp222
g7
F0.9860062599182129
sg8
F0.0024410959924883544
ssS'pair:[50.0,55.0]'
p223
(dp224
g7
F0.9830049872398376
sg8
F0.001587860423484935
ssS'pair:[40.0,50.0]'
p225
(dp226
g7
F0.9858195781707764
sg8
F0.0004445307357503587
ssS'pair:[60.0,120.0]'
p227
(dp228
g7
F0.9864743947982788
sg8
F0.0029265599000440072
ssS'pair:[20.0,25.0]'
p229
(dp230
g7
F0.9868296384811401
sg8
F0.015410483596185904
ssssS'pair_ne_ratio'
p231
(dp232
S'pair:[55.0,60.0]'
p233
(dp234
S'ne:[2.1,2.4]'
p235
(dp236
g7
F0.9691135287284851
sg8
F0.005093201155133272
ssS'ne:[1.2,2.1]'
p237
(dp238
g7
F0.9843052625656128
sg8
F0.0019255382845296707
ssS'ne:[0.0,0.9]'
p239
(dp240
g7
F0.9843087792396545
sg8
F0.0014710045119560413
ssS'ne:[0.9,1.2]'
p241
(dp242
g7
F0.9818939566612244
sg8
F0.007318425628926333
sssS'pair:[25.0,30.0]'
p243
(dp244
S'ne:[2.1,2.4]'
p245
(dp246
g7
F0.9809628129005432
sg8
F0.04277233996724803
ssS'ne:[1.2,2.1]'
p247
(dp248
g7
F0.992093026638031
sg8
F0.002293302347056123
ssS'ne:[0.0,0.9]'
p249
(dp250
g7
F0.9880728721618652
sg8
F0.0011145123215681911
ssS'ne:[0.9,1.2]'
p251
(dp252
g7
F0.9865238070487976
sg8
F0.03766199916733903
sssS'pair:[30.0,40.0]'
p253
(dp254
S'ne:[2.1,2.4]'
p255
(dp256
g7
F0.9742339849472046
sg8
F0.0016059542149556502
ssS'ne:[1.2,2.1]'
p257
(dp258
g7
F0.9931698441505432
sg8
F0.0005699257499285336
ssS'ne:[0.0,0.9]'
p259
(dp260
g7
F0.9885926246643066
sg8
F0.0004726090449869621
ssS'ne:[0.9,1.2]'
p261
(dp262
g7
F0.9860062599182129
sg8
F0.0024410959924883544
sssS'pair:[50.0,55.0]'
p263
(dp264
S'ne:[2.1,2.4]'
p265
(dp266
g7
F0.971699595451355
sg8
F0.0029973535063424392
ssS'ne:[1.2,2.1]'
p267
(dp268
g7
F0.988702118396759
sg8
F0.018978726388560817
ssS'ne:[0.0,0.9]'
p269
(dp270
g7
F0.9868936538696289
sg8
F0.0009136270295133958
ssS'ne:[0.9,1.2]'
p271
(dp272
g7
F0.9830049872398376
sg8
F0.001587860423484935
sssS'pair:[40.0,50.0]'
p273
(dp274
S'ne:[2.1,2.4]'
p275
(dp276
g7
F0.9797398447990417
sg8
F0.0007888390266390101
ssS'ne:[1.2,2.1]'
p277
(dp278
g7
F0.9923262596130371
sg8
F0.0003807550770759163
ssS'ne:[0.0,0.9]'
p279
(dp280
g7
F0.9907175898551941
sg8
F0.04143448020914492
ssS'ne:[0.9,1.2]'
p281
(dp282
g7
F0.9858195781707764
sg8
F0.0004445307357503587
sssS'pair:[60.0,120.0]'
p283
(dp284
S'ne:[2.1,2.4]'
p285
(dp286
g7
F0.9698559045791626
sg8
F0.005514830808282379
ssS'ne:[1.2,2.1]'
p287
(dp288
g7
F0.9906703233718872
sg8
F0.0070737498217392
ssS'ne:[0.0,0.9]'
p289
(dp290
g7
F0.9931981563568115
sg8
F0.0016014648960309915
ssS'ne:[0.9,1.2]'
p291
(dp292
g7
F0.9864743947982788
sg8
F0.0029265599000440072
sssS'pair:[20.0,25.0]'
p293
(dp294
S'ne:[2.1,2.4]'
p295
(dp296
g7
F0.9838207960128784
sg8
F0.002932129486220962
ssS'ne:[1.2,2.1]'
p297
(dp298
g7
F0.9917210340499878
sg8
F0.0018567328193872573
ssS'ne:[0.0,0.9]'
p299
(dp300
g7
F0.9941470623016357
sg8
F0.0026321024912637756
ssS'ne:[0.9,1.2]'
p301
(dp302
g7
F0.9868296384811401
sg8
F0.015410483596185904
sssssS'MC_NUM_LooseID_DEN_genTracks_PAR_eta'
p303
(dp304
S'eta_ratio'
p305
(dp306
S'eta:[-0.2,0.2]'
p307
(dp308
g7
F0.9987840056419373
sg8
F0.0002701236463369983
ssS'eta:[-2.4,-2.1]'
p309
(dp310
g7
F0.9925385117530823
sg8
F0.0005242907165420444
ssS'eta:[0.3,0.9]'
p311
(dp312
g7
F0.9990461468696594
sg8
F0.00022662995720709609
ssS'eta:[-0.9,-0.3]'
p313
(dp314
g7
F0.9987517595291138
sg8
F0.00022162068475294376
ssS'eta:[0.2,0.3]'
p315
(dp316
g7
F0.9965230226516724
sg8
F0.0006520979387076432
ssS'eta:[0.9,1.2]'
p317
(dp318
g7
F0.9988740086555481
sg8
F0.0003714806688856634
ssS'eta:[-1.2,-0.9]'
p319
(dp320
g7
F0.9974960088729858
sg8
F0.0003375331216257216
ssS'eta:[2.1,2.4]'
p321
(dp322
g7
F0.9946283102035522
sg8
F0.0005065635999224404
ssS'eta:[-1.6,-1.2]'
p323
(dp324
g7
F0.998817503452301
sg8
F0.0003432841969610535
ssS'eta:[1.2,1.6]'
p325
(dp326
g7
F0.997188925743103
sg8
F0.0005427248050564636
ssS'eta:[-2.1,-1.6]'
p327
(dp328
g7
F0.997275710105896
sg8
F0.00025019540904177754
ssS'eta:[-0.3,-0.2]'
p329
(dp330
g7
F0.9979823231697083
sg8
F0.0005938056364202899
ssS'eta:[1.6,2.1]'
p331
(dp332
g7
F0.9968330264091492
sg8
F0.0003365636306587402
ssssS'MC_NUM_HighPtID_DEN_genTracks_PAR_eta'
p333
(dp334
S'eta_ratio'
p335
(dp336
S'eta:[-0.2,0.2]'
p337
(dp338
g7
F0.9916554689407349
sg8
F0.0003852046971757715
ssS'eta:[-2.4,-2.1]'
p339
(dp340
g7
F0.9727692604064941
sg8
F0.0007259181427525101
ssS'eta:[0.3,0.9]'
p341
(dp342
g7
F0.990016520023346
sg8
F0.0003095397757522142
ssS'eta:[-0.9,-0.3]'
p343
(dp344
g7
F0.9904811978340149
sg8
F0.00030256198566521846
ssS'eta:[0.2,0.3]'
p345
(dp346
g7
F0.9673479199409485
sg8
F0.0013357363075370483
ssS'eta:[0.9,1.2]'
p347
(dp348
g7
F0.9821487069129944
sg8
F0.0005034431209320106
ssS'eta:[-1.2,-0.9]'
p349
(dp350
g7
F0.9844489693641663
sg8
F0.0004764490290666374
ssS'eta:[2.1,2.4]'
p351
(dp352
g7
F0.9759617447853088
sg8
F0.0006784500026583577
ssS'eta:[-1.6,-1.2]'
p353
(dp354
g7
F0.9952845573425293
sg8
F0.00039407591428204533
ssS'eta:[1.2,1.6]'
p355
(dp356
g7
F0.9923457503318787
sg8
F0.0005742281360152478
ssS'eta:[-2.1,-1.6]'
p357
(dp358
g7
F0.9833522439002991
sg8
F0.00034827854328845317
ssS'eta:[-0.3,-0.2]'
p359
(dp360
g7
F0.9696899056434631
sg8
F0.0012923456530350723
ssS'eta:[1.6,2.1]'
p361
(dp362
g7
F0.9862945079803467
sg8
F0.00039952543938797275
ssssS'MC_NUM_MediumID2016_DEN_genTracks_PAR_pt_eta'
p363
(dp364
S'pt_abseta_ratio'
p365
(dp366
S'pt:[25.0,30.0]'
p367
(dp368
S'abseta:[0.0,0.9]'
p369
(dp370
g7
F0.9961365461349487
sg8
F0.011081185128493015
ssS'abseta:[1.2,2.1]'
p371
(dp372
g7
F0.9968942999839783
sg8
F0.0008331298812487299
ssS'abseta:[2.1,2.4]'
p373
(dp374
g7
F0.9787212014198303
sg8
F0.0014648021748996643
ssS'abseta:[0.9,1.2]'
p375
(dp376
g7
F0.9991626739501953
sg8
F0.00852697089729773
sssS'pt:[30.0,40.0]'
p377
(dp378
S'abseta:[0.0,0.9]'
p379
(dp380
g7
F1.002260684967041
sg8
F0.0004619135586832387
ssS'abseta:[1.2,2.1]'
p381
(dp382
g7
F0.9977381229400635
sg8
F0.00028657484627313165
ssS'abseta:[2.1,2.4]'
p383
(dp384
g7
F0.9738774299621582
sg8
F0.0007282114247615862
ssS'abseta:[0.9,1.2]'
p385
(dp386
g7
F0.9978849291801453
sg8
F0.000437773546647899
sssS'pt:[60.0,120.0]'
p387
(dp388
S'abseta:[0.0,0.9]'
p389
(dp390
g7
F1.0012422800064087
sg8
F0.0014571662664052904
ssS'abseta:[1.2,2.1]'
p391
(dp392
g7
F0.9954279661178589
sg8
F0.002306964089465379
ssS'abseta:[2.1,2.4]'
p393
(dp394
g7
F0.9714229702949524
sg8
F0.010536176649394075
ssS'abseta:[0.9,1.2]'
p395
(dp396
g7
F0.9995414018630981
sg8
F0.002715514222400937
sssS'pt:[20.0,25.0]'
p397
(dp398
S'abseta:[0.0,0.9]'
p399
(dp400
g7
F1.0016001462936401
sg8
F0.0024876435659870904
ssS'abseta:[1.2,2.1]'
p401
(dp402
g7
F0.9973748922348022
sg8
F0.0017970830944014486
ssS'abseta:[2.1,2.4]'
p403
(dp404
g7
F0.9839962124824524
sg8
F0.002730306025678828
ssS'abseta:[0.9,1.2]'
p405
(dp406
g7
F1.0010302066802979
sg8
F0.00673470115716185
sssS'pt:[40.0,50.0]'
p407
(dp408
S'abseta:[0.0,0.9]'
p409
(dp410
g7
F0.9994058012962341
sg8
F0.0001932867001032634
ssS'abseta:[1.2,2.1]'
p411
(dp412
g7
F0.9963864088058472
sg8
F0.00021028644500322235
ssS'abseta:[2.1,2.4]'
p413
(dp414
g7
F0.974616527557373
sg8
F0.0007339262131639097
ssS'abseta:[0.9,1.2]'
p415
(dp416
g7
F0.9984003901481628
sg8
F0.00031573088277258633
sssS'pt:[50.0,60.0]'
p417
(dp418
S'abseta:[0.0,0.9]'
p419
(dp420
g7
F0.9940690994262695
sg8
F0.0006066288412374093
ssS'abseta:[1.2,2.1]'
p421
(dp422
g7
F0.9914271235466003
sg8
F0.0009153492276640991
ssS'abseta:[2.1,2.4]'
p423
(dp424
g7
F0.9702058434486389
sg8
F0.0023673101814386606
ssS'abseta:[0.9,1.2]'
p425
(dp426
g7
F0.9940105676651001
sg8
F0.00112190091898246
ssssS'abseta_pt_ratio'
p427
(dp428
S'abseta:[0.0,0.9]'
p429
(dp430
S'pt:[25.0,30.0]'
p431
(dp432
g7
F0.9961365461349487
sg8
F0.011081185128493015
ssS'pt:[30.0,40.0]'
p433
(dp434
g7
F1.002260684967041
sg8
F0.0004619135586832387
ssS'pt:[60.0,120.0]'
p435
(dp436
g7
F1.0012422800064087
sg8
F0.0014571662664052904
ssS'pt:[20.0,25.0]'
p437
(dp438
g7
F1.0016001462936401
sg8
F0.0024876435659870904
ssS'pt:[40.0,50.0]'
p439
(dp440
g7
F0.9994058012962341
sg8
F0.0001932867001032634
ssS'pt:[50.0,60.0]'
p441
(dp442
g7
F0.9940690994262695
sg8
F0.0006066288412374093
sssS'abseta:[1.2,2.1]'
p443
(dp444
S'pt:[25.0,30.0]'
p445
(dp446
g7
F0.9968942999839783
sg8
F0.0008331298812487299
ssS'pt:[30.0,40.0]'
p447
(dp448
g7
F0.9977381229400635
sg8
F0.00028657484627313165
ssS'pt:[60.0,120.0]'
p449
(dp450
g7
F0.9954279661178589
sg8
F0.002306964089465379
ssS'pt:[20.0,25.0]'
p451
(dp452
g7
F0.9973748922348022
sg8
F0.0017970830944014486
ssS'pt:[40.0,50.0]'
p453
(dp454
g7
F0.9963864088058472
sg8
F0.00021028644500322235
ssS'pt:[50.0,60.0]'
p455
(dp456
g7
F0.9914271235466003
sg8
F0.0009153492276640991
sssS'abseta:[2.1,2.4]'
p457
(dp458
S'pt:[25.0,30.0]'
p459
(dp460
g7
F0.9787212014198303
sg8
F0.0014648021748996643
ssS'pt:[30.0,40.0]'
p461
(dp462
g7
F0.9738774299621582
sg8
F0.0007282114247615862
ssS'pt:[60.0,120.0]'
p463
(dp464
g7
F0.9714229702949524
sg8
F0.010536176649394075
ssS'pt:[20.0,25.0]'
p465
(dp466
g7
F0.9839962124824524
sg8
F0.002730306025678828
ssS'pt:[40.0,50.0]'
p467
(dp468
g7
F0.974616527557373
sg8
F0.0007339262131639097
ssS'pt:[50.0,60.0]'
p469
(dp470
g7
F0.9702058434486389
sg8
F0.0023673101814386606
sssS'abseta:[0.9,1.2]'
p471
(dp472
S'pt:[25.0,30.0]'
p473
(dp474
g7
F0.9991626739501953
sg8
F0.00852697089729773
ssS'pt:[30.0,40.0]'
p475
(dp476
g7
F0.9978849291801453
sg8
F0.000437773546647899
ssS'pt:[60.0,120.0]'
p477
(dp478
g7
F0.9995414018630981
sg8
F0.002715514222400937
ssS'pt:[20.0,25.0]'
p479
(dp480
g7
F1.0010302066802979
sg8
F0.00673470115716185
ssS'pt:[40.0,50.0]'
p481
(dp482
g7
F0.9984003901481628
sg8
F0.00031573088277258633
ssS'pt:[50.0,60.0]'
p483
(dp484
g7
F0.9940105676651001
sg8
F0.00112190091898246
sssssS'MC_NUM_HighPtID_DEN_genTracks_PAR_vtx'
p485
(dp486
S'tag_nVertices_ratio'
p487
(dp488
S'tag:[30.5,32.5]'
p489
(dp490
g7
F0.9830303192138672
sg8
F0.002013264880105558
ssS'tag:[46.5,48.5]'
p491
(dp492
g7
F0.8642623424530029
sg8
F0.03898722884694298
ssS'tag:[28.5,30.5]'
p493
(dp494
g7
F0.9829240441322327
sg8
F0.0014275377081806708
ssS'tag:[44.5,46.5]'
p495
(dp496
g7
F0.9469375610351562
sg8
F0.029511298101368887
ssS'tag:[6.5,8.5]'
p497
(dp498
g7
F0.9883503317832947
sg8
F0.0005656687561015752
ssS'tag:[14.5,16.5]'
p499
(dp500
g7
F0.9874244332313538
sg8
F0.0003210847219796598
ssS'tag:[24.5,26.5]'
p501
(dp502
g7
F0.9827792048454285
sg8
F0.000760347878927692
ssS'tag:[34.5,36.5]'
p503
(dp504
g7
F0.9794139862060547
sg8
F0.004250767214112203
ssS'tag:[8.5,10.5]'
p505
(dp506
g7
F0.9884700179100037
sg8
F0.00041205040154777654
ssS'tag:[18.5,20.5]'
p507
(dp508
g7
F0.9865318536758423
sg8
F0.00039457889102234827
ssS'tag:[16.5,18.5]'
p509
(dp510
g7
F0.9868479371070862
sg8
F0.0003464307543339577
ssS'tag:[32.5,34.5]'
p511
(dp512
g7
F0.97695392370224
sg8
F0.002951287928242235
ssS'tag:[48.5,50.5]'
p513
(dp514
g7
F0.8027735948562622
sg8
F0.05724919200455238
ssS'tag:[22.5,24.5]'
p515
(dp516
g7
F0.98481285572052
sg8
F0.0005872946905936935
ssS'tag:[42.5,44.5]'
p517
(dp518
g7
F0.9904003739356995
sg8
F0.021685293159550804
ssS'tag:[38.5,40.5]'
p519
(dp520
g7
F0.9918348789215088
sg8
F0.009758827206448628
ssS'tag:[2.5,4.5]'
p521
(dp522
g7
F0.9948320984840393
sg8
F0.003904133614299803
ssS'tag:[12.5,14.5]'
p523
(dp524
g7
F0.9879598021507263
sg8
F0.0003174587896035969
ssS'tag:[0.5,2.5]'
p525
(dp526
g7
F0.9900993704795837
sg8
F0.005639811000289371
ssS'tag:[40.5,42.5]'
p527
(dp528
g7
F0.9851957559585571
sg8
F0.014818697415399543
ssS'tag:[20.5,22.5]'
p529
(dp530
g7
F0.9857809543609619
sg8
F0.00047088775272973333
ssS'tag:[10.5,12.5]'
p531
(dp532
g7
F0.9881130456924438
sg8
F0.00034210965514697145
ssS'tag:[26.5,28.5]'
p533
(dp534
g7
F0.9833922982215881
sg8
F0.001021672902011556
ssS'tag:[36.5,38.5]'
p535
(dp536
g7
F0.9704650044441223
sg8
F0.006427600720482649
ssS'tag:[4.5,6.5]'
p537
(dp538
g7
F0.9898300170898438
sg8
F0.0009663621508855846
ssssS'MC_NUM_MediumID_DEN_genTracks_PAR_vtx'
p539
(dp540
S'tag_nVertices_ratio'
p541
(dp542
S'tag:[30.5,32.5]'
p543
(dp544
g7
F0.9929935336112976
sg8
F0.0018200426438551795
ssS'tag:[46.5,48.5]'
p545
(dp546
g7
F0.9101702570915222
sg8
F0.03628914205338162
ssS'tag:[28.5,30.5]'
p547
(dp548
g7
F0.9926252365112305
sg8
F0.0012801755541761559
ssS'tag:[44.5,46.5]'
p549
(dp550
g7
F0.9784044027328491
sg8
F0.027126221237386578
ssS'tag:[6.5,8.5]'
p551
(dp552
g7
F0.9945263266563416
sg8
F0.00043053370284496954
ssS'tag:[14.5,16.5]'
p553
(dp554
g7
F0.9935158491134644
sg8
F0.00026100089791787195
ssS'tag:[24.5,26.5]'
p555
(dp556
g7
F0.9927114248275757
sg8
F0.0006680404175698731
ssS'tag:[34.5,36.5]'
p557
(dp558
g7
F0.9867967367172241
sg8
F0.0039077597298747616
ssS'tag:[8.5,10.5]'
p559
(dp560
g7
F0.9937339425086975
sg8
F0.00031573255944988805
ssS'tag:[18.5,20.5]'
p561
(dp562
g7
F0.9938783049583435
sg8
F0.0003332946583155188
ssS'tag:[16.5,18.5]'
p563
(dp564
g7
F0.9938278794288635
sg8
F0.0002879452802403698
ssS'tag:[32.5,34.5]'
p565
(dp566
g7
F0.9887409210205078
sg8
F0.0026956775381524966
ssS'tag:[48.5,50.5]'
p567
(dp568
g7
F0.8523454666137695
sg8
F0.0540311044195838
ssS'tag:[22.5,24.5]'
p569
(dp570
g7
F0.9936668872833252
sg8
F0.0005103559396043111
ssS'tag:[42.5,44.5]'
p571
(dp572
g7
F1.0047719478607178
sg8
F0.019954802732300603
ssS'tag:[38.5,40.5]'
p573
(dp574
g7
F1.001322865486145
sg8
F0.009098505375885666
ssS'tag:[2.5,4.5]'
p575
(dp576
g7
F0.9970452785491943
sg8
F0.0016257541015990496
ssS'tag:[12.5,14.5]'
p577
(dp578
g7
F0.9941753149032593
sg8
F0.00025383662140090953
ssS'tag:[0.5,2.5]'
p579
(dp580
g7
F0.9947724938392639
sg8
F0.010353403887728568
ssS'tag:[40.5,42.5]'
p581
(dp582
g7
F0.9968394041061401
sg8
F0.01368711474041853
ssS'tag:[20.5,22.5]'
p583
(dp584
g7
F0.9935731291770935
sg8
F0.0004017886340385818
ssS'tag:[10.5,12.5]'
p585
(dp586
g7
F0.9940454959869385
sg8
F0.00026760469584466743
ssS'tag:[26.5,28.5]'
p587
(dp588
g7
F0.9937569499015808
sg8
F0.000910644134658249
ssS'tag:[36.5,38.5]'
p589
(dp590
g7
F0.9879805445671082
sg8
F0.005957105694071149
ssS'tag:[4.5,6.5]'
p591
(dp592
g7
F0.9945188760757446
sg8
F0.0007244061600650707
ssssS'MC_NUM_MediumID2016_DEN_genTracks_PAR_pt'
p593
(dp594
S'pt_ratio'
p595
(dp596
S'pt:[25.0,30.0]'
p597
(dp598
g7
F0.997450053691864
sg8
F0.0005126720297365044
ssS'pt:[30.0,40.0]'
p599
(dp600
g7
F0.9963736534118652
sg8
F0.0001616841912852725
ssS'pt:[60.0,120.0]'
p601
(dp602
g7
F0.9982524514198303
sg8
F0.001109259993999431
ssS'pt:[120.0,200.0]'
p603
(dp604
g7
F1.0043190717697144
sg8
F0.003747094315758312
ssS'pt:[20.0,25.0]'
p605
(dp606
g7
F1.0060397386550903
sg8
F0.0008082727096455358
ssS'pt:[40.0,50.0]'
p607
(dp608
g7
F0.9956701993942261
sg8
F0.00012077976716741475
ssS'pt:[50.0,60.0]'
p609
(dp610
g7
F0.9920544028282166
sg8
F0.00046080894227044656
ssssS'MC_NUM_LooseID_DEN_genTracks_PAR_vtx'
p611
(dp612
S'tag_nVertices_ratio'
p613
(dp614
S'tag:[30.5,32.5]'
p615
(dp616
g7
F0.9987905621528625
sg8
F0.0017442734380143058
ssS'tag:[46.5,48.5]'
p617
(dp618
g7
F0.9109886884689331
sg8
F0.035888413871162844
ssS'tag:[28.5,30.5]'
p619
(dp620
g7
F0.9977329969406128
sg8
F0.0012173937972043572
ssS'tag:[44.5,46.5]'
p621
(dp622
g7
F0.9746630191802979
sg8
F0.02649495686738095
ssS'tag:[6.5,8.5]'
p623
(dp624
g7
F0.9982538819313049
sg8
F0.0003378982227871574
ssS'tag:[14.5,16.5]'
p625
(dp626
g7
F0.9980648756027222
sg8
F0.00022353327398231675
ssS'tag:[24.5,26.5]'
p627
(dp628
g7
F0.997576117515564
sg8
F0.0006259612722191398
ssS'tag:[34.5,36.5]'
p629
(dp630
g7
F0.9927372336387634
sg8
F0.0038162095218493676
ssS'tag:[8.5,10.5]'
p631
(dp632
g7
F0.9977983236312866
sg8
F0.00025056945165839966
ssS'tag:[18.5,20.5]'
p633
(dp634
g7
F0.9988223910331726
sg8
F0.0002979191521623539
ssS'tag:[16.5,18.5]'
p635
(dp636
g7
F0.9983994960784912
sg8
F0.0002532228635148015
ssS'tag:[32.5,34.5]'
p637
(dp638
g7
F0.993991494178772
sg8
F0.002610780326455646
ssS'tag:[48.5,50.5]'
p639
(dp640
g7
F0.8681390285491943
sg8
F0.05366392807649672
ssS'tag:[22.5,24.5]'
p641
(dp642
g7
F0.99854576587677
sg8
F0.00046870639058358115
ssS'tag:[42.5,44.5]'
p643
(dp644
g7
F1.002062439918518
sg8
F0.013645551274415094
ssS'tag:[38.5,40.5]'
p645
(dp646
g7
F1.0030289888381958
sg8
F0.005570887701820037
ssS'tag:[2.5,4.5]'
p647
(dp648
g7
F0.9996188282966614
sg8
F0.001210233497232119
ssS'tag:[12.5,14.5]'
p649
(dp650
g7
F0.9984728097915649
sg8
F0.00021222822753145197
ssS'tag:[0.5,2.5]'
p651
(dp652
g7
F0.9959008097648621
sg8
F0.002782153930589313
ssS'tag:[40.5,42.5]'
p653
(dp654
g7
F1.0024465322494507
sg8
F0.01179771316485423
ssS'tag:[20.5,22.5]'
p655
(dp656
g7
F0.9984323978424072
sg8
F0.0003645819784588252
ssS'tag:[10.5,12.5]'
p657
(dp658
g7
F0.9981033802032471
sg8
F0.00021798599046250652
ssS'tag:[26.5,28.5]'
p659
(dp660
g7
F0.9988616704940796
sg8
F0.0008571921656654018
ssS'tag:[36.5,38.5]'
p661
(dp662
g7
F0.993333101272583
sg8
F0.005828297055394012
ssS'tag:[4.5,6.5]'
p663
(dp664
g7
F0.9983022212982178
sg8
F0.0005459770952531187
ssssS'MC_NUM_LooseID_DEN_genTracks_PAR_pt_eta'
p665
(dp666
S'pt_abseta_ratio'
p667
(dp668
S'pt:[25.0,30.0]'
p669
(dp670
S'abseta:[0.0,0.9]'
p671
(dp672
g7
F0.9985156655311584
sg8
F0.0009132149820855487
ssS'abseta:[1.2,2.1]'
p673
(dp674
g7
F1.0007121562957764
sg8
F0.0007768639026128818
ssS'abseta:[2.1,2.4]'
p675
(dp676
g7
F0.9982455372810364
sg8
F0.0012508108298191945
ssS'abseta:[0.9,1.2]'
p677
(dp678
g7
F1.0021028518676758
sg8
F0.001416245411991499
sssS'pt:[30.0,40.0]'
p679
(dp680
S'abseta:[0.0,0.9]'
p681
(dp682
g7
F0.999643862247467
sg8
F0.00021840068955596246
ssS'abseta:[1.2,2.1]'
p683
(dp684
g7
F1.0007799863815308
sg8
F8.151582324012561e-05
ssS'abseta:[2.1,2.4]'
p685
(dp686
g7
F0.9944105744361877
sg8
F0.008634341865860809
ssS'abseta:[0.9,1.2]'
p687
(dp688
g7
F1.0003057718276978
sg8
F0.00037654284423919814
sssS'pt:[60.0,120.0]'
p689
(dp690
S'abseta:[0.0,0.9]'
p691
(dp692
g7
F1.0010267496109009
sg8
F0.00043367270680254625
ssS'abseta:[1.2,2.1]'
p693
(dp694
g7
F0.998901903629303
sg8
F0.0022881776648605683
ssS'abseta:[2.1,2.4]'
p695
(dp696
g7
F0.9945389032363892
sg8
F0.004906282818624208
ssS'abseta:[0.9,1.2]'
p697
(dp698
g7
F1.000776767730713
sg8
F0.0016885658775323996
sssS'pt:[20.0,25.0]'
p699
(dp700
S'abseta:[0.0,0.9]'
p701
(dp702
g7
F1.0012140274047852
sg8
F0.001253485322132072
ssS'abseta:[1.2,2.1]'
p703
(dp704
g7
F1.000495195388794
sg8
F0.0017643238405133299
ssS'abseta:[2.1,2.4]'
p705
(dp706
g7
F1.003538727760315
sg8
F0.0019841409511250512
ssS'abseta:[0.9,1.2]'
p707
(dp708
g7
F1.0016283988952637
sg8
F0.0015093968595321242
sssS'pt:[40.0,50.0]'
p709
(dp710
S'abseta:[0.0,0.9]'
p711
(dp712
g7
F1.0016154050827026
sg8
F0.00013376974280518517
ssS'abseta:[1.2,2.1]'
p713
(dp714
g7
F0.9998524785041809
sg8
F0.0002298450218890691
ssS'abseta:[2.1,2.4]'
p715
(dp716
g7
F0.9960436224937439
sg8
F0.0004634132228256282
ssS'abseta:[0.9,1.2]'
p717
(dp718
g7
F1.0007940530776978
sg8
F0.0002606017255205575
sssS'pt:[50.0,60.0]'
p719
(dp720
S'abseta:[0.0,0.9]'
p721
(dp722
g7
F0.9964509010314941
sg8
F0.0005479472443554451
ssS'abseta:[1.2,2.1]'
p723
(dp724
g7
F0.9949773550033569
sg8
F0.0008860052463816284
ssS'abseta:[2.1,2.4]'
p725
(dp726
g7
F0.9923499822616577
sg8
F0.002091941804371259
ssS'abseta:[0.9,1.2]'
p727
(dp728
g7
F0.996436595916748
sg8
F0.001035199417125114
ssssS'abseta_pt_ratio'
p729
(dp730
S'abseta:[0.0,0.9]'
p731
(dp732
S'pt:[25.0,30.0]'
p733
(dp734
g7
F0.9985156655311584
sg8
F0.0009132149820855487
ssS'pt:[30.0,40.0]'
p735
(dp736
g7
F0.999643862247467
sg8
F0.00021840068955596246
ssS'pt:[60.0,120.0]'
p737
(dp738
g7
F1.0010267496109009
sg8
F0.00043367270680254625
ssS'pt:[20.0,25.0]'
p739
(dp740
g7
F1.0012140274047852
sg8
F0.001253485322132072
ssS'pt:[40.0,50.0]'
p741
(dp742
g7
F1.0016154050827026
sg8
F0.00013376974280518517
ssS'pt:[50.0,60.0]'
p743
(dp744
g7
F0.9964509010314941
sg8
F0.0005479472443554451
sssS'abseta:[1.2,2.1]'
p745
(dp746
S'pt:[25.0,30.0]'
p747
(dp748
g7
F1.0007121562957764
sg8
F0.0007768639026128818
ssS'pt:[30.0,40.0]'
p749
(dp750
g7
F1.0007799863815308
sg8
F8.151582324012561e-05
ssS'pt:[60.0,120.0]'
p751
(dp752
g7
F0.998901903629303
sg8
F0.0022881776648605683
ssS'pt:[20.0,25.0]'
p753
(dp754
g7
F1.000495195388794
sg8
F0.0017643238405133299
ssS'pt:[40.0,50.0]'
p755
(dp756
g7
F0.9998524785041809
sg8
F0.0002298450218890691
ssS'pt:[50.0,60.0]'
p757
(dp758
g7
F0.9949773550033569
sg8
F0.0008860052463816284
sssS'abseta:[2.1,2.4]'
p759
(dp760
S'pt:[25.0,30.0]'
p761
(dp762
g7
F0.9982455372810364
sg8
F0.0012508108298191945
ssS'pt:[30.0,40.0]'
p763
(dp764
g7
F0.9944105744361877
sg8
F0.008634341865860809
ssS'pt:[60.0,120.0]'
p765
(dp766
g7
F0.9945389032363892
sg8
F0.004906282818624208
ssS'pt:[20.0,25.0]'
p767
(dp768
g7
F1.003538727760315
sg8
F0.0019841409511250512
ssS'pt:[40.0,50.0]'
p769
(dp770
g7
F0.9960436224937439
sg8
F0.0004634132228256282
ssS'pt:[50.0,60.0]'
p771
(dp772
g7
F0.9923499822616577
sg8
F0.002091941804371259
sssS'abseta:[0.9,1.2]'
p773
(dp774
S'pt:[25.0,30.0]'
p775
(dp776
g7
F1.0021028518676758
sg8
F0.001416245411991499
ssS'pt:[30.0,40.0]'
p777
(dp778
g7
F1.0003057718276978
sg8
F0.00037654284423919814
ssS'pt:[60.0,120.0]'
p779
(dp780
g7
F1.000776767730713
sg8
F0.0016885658775323996
ssS'pt:[20.0,25.0]'
p781
(dp782
g7
F1.0016283988952637
sg8
F0.0015093968595321242
ssS'pt:[40.0,50.0]'
p783
(dp784
g7
F1.0007940530776978
sg8
F0.0002606017255205575
ssS'pt:[50.0,60.0]'
p785
(dp786
g7
F0.996436595916748
sg8
F0.001035199417125114
sssssS'MC_NUM_MediumID_DEN_genTracks_PAR_eta'
p787
(dp788
S'eta_ratio'
p789
(dp790
S'eta:[-0.2,0.2]'
p791
(dp792
g7
F0.9962032437324524
sg8
F0.00033188272803190053
ssS'eta:[-2.4,-2.1]'
p793
(dp794
g7
F0.9707720279693604
sg8
F0.0006502168481221133
ssS'eta:[0.3,0.9]'
p795
(dp796
g7
F0.9970819354057312
sg8
F0.0002550461408652006
ssS'eta:[-0.9,-0.3]'
p797
(dp798
g7
F0.9958186149597168
sg8
F0.00025092775391889576
ssS'eta:[0.2,0.3]'
p799
(dp800
g7
F0.9911949634552002
sg8
F0.0007876521171278377
ssS'eta:[0.9,1.2]'
p801
(dp802
g7
F0.9945696592330933
sg8
F0.0004212408470874981
ssS'eta:[-1.2,-0.9]'
p803
(dp804
g7
F0.9949389696121216
sg8
F0.00038893140476789885
ssS'eta:[2.1,2.4]'
p805
(dp806
g7
F0.9746349453926086
sg8
F0.0006270346905148734
ssS'eta:[-1.6,-1.2]'
p807
(dp808
g7
F0.9970554113388062
sg8
F0.00036755094708382967
ssS'eta:[1.2,1.6]'
p809
(dp810
g7
F0.9956257939338684
sg8
F0.0005612609942745378
ssS'eta:[-2.1,-1.6]'
p811
(dp812
g7
F0.9892347455024719
sg8
F0.00028557954806560326
ssS'eta:[-0.3,-0.2]'
p813
(dp814
g7
F0.9886279106140137
sg8
F0.0007358782544321488
ssS'eta:[1.6,2.1]'
p815
(dp816
g7
F0.9923883080482483
sg8
F0.00035223589910765536
ssssS'MC_NUM_MediumID2016_DEN_genTracks_PAR_eta'
p817
(dp818
S'eta_ratio'
p819
(dp820
S'eta:[-0.2,0.2]'
p821
(dp822
g7
F0.9962055683135986
sg8
F0.0003161794498587128
ssS'eta:[-2.4,-2.1]'
p823
(dp824
g7
F0.9706170558929443
sg8
F0.0006428458647109054
ssS'eta:[0.3,0.9]'
p825
(dp826
g7
F0.9977250099182129
sg8
F0.00024792408229166557
ssS'eta:[-0.9,-0.3]'
p827
(dp828
g7
F0.9969560503959656
sg8
F0.0002450848157350269
ssS'eta:[0.2,0.3]'
p829
(dp830
g7
F0.9919126629829407
sg8
F0.000780477452108553
ssS'eta:[0.9,1.2]'
p831
(dp832
g7
F0.9953650236129761
sg8
F0.0004082665640404667
ssS'eta:[-1.2,-0.9]'
p833
(dp834
g7
F0.995774507522583
sg8
F0.0003799798141075232
ssS'eta:[2.1,2.4]'
p835
(dp836
g7
F0.9748007655143738
sg8
F0.0006244124093772179
ssS'eta:[-1.6,-1.2]'
p837
(dp838
g7
F0.9973989129066467
sg8
F0.0003625769307890226
ssS'eta:[1.2,1.6]'
p839
(dp840
g7
F0.9959609508514404
sg8
F0.0005544580710137879
ssS'eta:[-2.1,-1.6]'
p841
(dp842
g7
F0.9896499514579773
sg8
F0.0002812970630226149
ssS'eta:[-0.3,-0.2]'
p843
(dp844
g7
F0.9896334409713745
sg8
F0.0007267784346094219
ssS'eta:[1.6,2.1]'
p845
(dp846
g7
F0.9924294352531433
sg8
F0.0003477804484465274
ssssS'MC_NUM_MediumID_DEN_genTracks_PAR_pt_eta'
p847
(dp848
S'pt_abseta_ratio'
p849
(dp850
S'pt:[25.0,30.0]'
p851
(dp852
S'abseta:[0.0,0.9]'
p853
(dp854
g7
F0.9953872561454773
sg8
F0.0014425164392238526
ssS'abseta:[1.2,2.1]'
p855
(dp856
g7
F0.9965993165969849
sg8
F0.0008409144522744501
ssS'abseta:[2.1,2.4]'
p857
(dp858
g7
F0.9789237380027771
sg8
F0.0014775539329576993
ssS'abseta:[0.9,1.2]'
p859
(dp860
g7
F0.9980693459510803
sg8
F0.010818004910337648
sssS'pt:[30.0,40.0]'
p861
(dp862
S'abseta:[0.0,0.9]'
p863
(dp864
g7
F1.0012872219085693
sg8
F0.00039854736651988336
ssS'abseta:[1.2,2.1]'
p865
(dp866
g7
F0.9975389838218689
sg8
F0.0059074047534168886
ssS'abseta:[2.1,2.4]'
p867
(dp868
g7
F0.9737859964370728
sg8
F0.03907497493246761
ssS'abseta:[0.9,1.2]'
p869
(dp870
g7
F0.9971123337745667
sg8
F0.001852510775056783
sssS'pt:[60.0,120.0]'
p871
(dp872
S'abseta:[0.0,0.9]'
p873
(dp874
g7
F1.0006190538406372
sg8
F0.0014755225313370555
ssS'abseta:[1.2,2.1]'
p875
(dp876
g7
F0.9950846433639526
sg8
F0.008117541874870512
ssS'abseta:[2.1,2.4]'
p877
(dp878
g7
F0.9706301093101501
sg8
F0.005180569180698113
ssS'abseta:[0.9,1.2]'
p879
(dp880
g7
F0.9986520409584045
sg8
F0.0027414727104348824
sssS'pt:[20.0,25.0]'
p881
(dp882
S'abseta:[0.0,0.9]'
p883
(dp884
g7
F1.0012034177780151
sg8
F0.0024989488903836518
ssS'abseta:[1.2,2.1]'
p885
(dp886
g7
F0.997079074382782
sg8
F0.001795201150924806
ssS'abseta:[2.1,2.4]'
p887
(dp888
g7
F0.9832556247711182
sg8
F0.010266470356864437
ssS'abseta:[0.9,1.2]'
p889
(dp890
g7
F1.0000239610671997
sg8
F0.003316480838381214
sssS'pt:[40.0,50.0]'
p891
(dp892
S'abseta:[0.0,0.9]'
p893
(dp894
g7
F0.9989199638366699
sg8
F0.0002025948558285524
ssS'abseta:[1.2,2.1]'
p895
(dp896
g7
F0.9961283802986145
sg8
F0.00021417839841851948
ssS'abseta:[2.1,2.4]'
p897
(dp898
g7
F0.9748206734657288
sg8
F0.0008506075227949416
ssS'abseta:[0.9,1.2]'
p899
(dp900
g7
F0.9977040886878967
sg8
F0.0003315086268852849
sssS'pt:[50.0,60.0]'
p901
(dp902
S'abseta:[0.0,0.9]'
p903
(dp904
g7
F0.9933984279632568
sg8
F0.0006219690770472941
ssS'abseta:[1.2,2.1]'
p905
(dp906
g7
F0.9910362958908081
sg8
F0.003130295930484748
ssS'abseta:[2.1,2.4]'
p907
(dp908
g7
F0.9702518582344055
sg8
F0.0023134502171635765
ssS'abseta:[0.9,1.2]'
p909
(dp910
g7
F0.9934287667274475
sg8
F0.0011659490252191392
ssssS'abseta_pt_ratio'
p911
(dp912
S'abseta:[0.0,0.9]'
p913
(dp914
S'pt:[25.0,30.0]'
p915
(dp916
g7
F0.9953872561454773
sg8
F0.0014425164392238526
ssS'pt:[30.0,40.0]'
p917
(dp918
g7
F1.0012872219085693
sg8
F0.00039854736651988336
ssS'pt:[60.0,120.0]'
p919
(dp920
g7
F1.0006190538406372
sg8
F0.0014755225313370555
ssS'pt:[20.0,25.0]'
p921
(dp922
g7
F1.0012034177780151
sg8
F0.0024989488903836518
ssS'pt:[40.0,50.0]'
p923
(dp924
g7
F0.9989199638366699
sg8
F0.0002025948558285524
ssS'pt:[50.0,60.0]'
p925
(dp926
g7
F0.9933984279632568
sg8
F0.0006219690770472941
sssS'abseta:[1.2,2.1]'
p927
(dp928
S'pt:[25.0,30.0]'
p929
(dp930
g7
F0.9965993165969849
sg8
F0.0008409144522744501
ssS'pt:[30.0,40.0]'
p931
(dp932
g7
F0.9975389838218689
sg8
F0.0059074047534168886
ssS'pt:[60.0,120.0]'
p933
(dp934
g7
F0.9950846433639526
sg8
F0.008117541874870512
ssS'pt:[20.0,25.0]'
p935
(dp936
g7
F0.997079074382782
sg8
F0.001795201150924806
ssS'pt:[40.0,50.0]'
p937
(dp938
g7
F0.9961283802986145
sg8
F0.00021417839841851948
ssS'pt:[50.0,60.0]'
p939
(dp940
g7
F0.9910362958908081
sg8
F0.003130295930484748
sssS'abseta:[2.1,2.4]'
p941
(dp942
S'pt:[25.0,30.0]'
p943
(dp944
g7
F0.9789237380027771
sg8
F0.0014775539329576993
ssS'pt:[30.0,40.0]'
p945
(dp946
g7
F0.9737859964370728
sg8
F0.03907497493246761
ssS'pt:[60.0,120.0]'
p947
(dp948
g7
F0.9706301093101501
sg8
F0.005180569180698113
ssS'pt:[20.0,25.0]'
p949
(dp950
g7
F0.9832556247711182
sg8
F0.010266470356864437
ssS'pt:[40.0,50.0]'
p951
(dp952
g7
F0.9748206734657288
sg8
F0.0008506075227949416
ssS'pt:[50.0,60.0]'
p953
(dp954
g7
F0.9702518582344055
sg8
F0.0023134502171635765
sssS'abseta:[0.9,1.2]'
p955
(dp956
S'pt:[25.0,30.0]'
p957
(dp958
g7
F0.9980693459510803
sg8
F0.010818004910337648
ssS'pt:[30.0,40.0]'
p959
(dp960
g7
F0.9971123337745667
sg8
F0.001852510775056783
ssS'pt:[60.0,120.0]'
p961
(dp962
g7
F0.9986520409584045
sg8
F0.0027414727104348824
ssS'pt:[20.0,25.0]'
p963
(dp964
g7
F1.0000239610671997
sg8
F0.003316480838381214
ssS'pt:[40.0,50.0]'
p965
(dp966
g7
F0.9977040886878967
sg8
F0.0003315086268852849
ssS'pt:[50.0,60.0]'
p967
(dp968
g7
F0.9934287667274475
sg8
F0.0011659490252191392
sssssS'MC_NUM_TightID_DEN_genTracks_PAR_vtx'
p969
(dp970
S'tag_nVertices_ratio'
p971
(dp972
S'tag:[30.5,32.5]'
p973
(dp974
g7
F0.9826167225837708
sg8
F0.002036087961298308
ssS'tag:[46.5,48.5]'
p975
(dp976
g7
F0.8525797128677368
sg8
F0.03908247405912345
ssS'tag:[28.5,30.5]'
p977
(dp978
g7
F0.9818833470344543
sg8
F0.0014455784659556524
ssS'tag:[44.5,46.5]'
p979
(dp980
g7
F0.943436861038208
sg8
F0.029560146723526998
ssS'tag:[6.5,8.5]'
p981
(dp982
g7
F0.9865577816963196
sg8
F0.0005924628649982698
ssS'tag:[14.5,16.5]'
p983
(dp984
g7
F0.9860063195228577
sg8
F0.00033323499685454933
ssS'tag:[24.5,26.5]'
p985
(dp986
g7
F0.9813747406005859
sg8
F0.0007755809880926321
ssS'tag:[34.5,36.5]'
p987
(dp988
g7
F0.9775809645652771
sg8
F0.004289890478145612
ssS'tag:[8.5,10.5]'
p989
(dp990
g7
F0.9867591261863708
sg8
F0.00043104142816742833
ssS'tag:[18.5,20.5]'
p991
(dp992
g7
F0.9852176308631897
sg8
F0.000406973758273477
ssS'tag:[16.5,18.5]'
p993
(dp994
g7
F0.9853494763374329
sg8
F0.0003577627054605156
ssS'tag:[32.5,34.5]'
p995
(dp996
g7
F0.9762956500053406
sg8
F0.0029865237164796465
ssS'tag:[48.5,50.5]'
p997
(dp998
g7
F0.8054839968681335
sg8
F0.057457597210742624
ssS'tag:[22.5,24.5]'
p999
(dp1000
g7
F0.9835682511329651
sg8
F0.000601129932407341
ssS'tag:[42.5,44.5]'
p1001
(dp1002
g7
F0.98789381980896
sg8
F0.021848827375421025
ssS'tag:[38.5,40.5]'
p1003
(dp1004
g7
F0.9920074343681335
sg8
F0.00982820641377584
ssS'tag:[2.5,4.5]'
p1005
(dp1006
g7
F0.9927738308906555
sg8
F0.0022602539007479682
ssS'tag:[12.5,14.5]'
p1007
(dp1008
g7
F0.9863827228546143
sg8
F0.0003303720444346742
ssS'tag:[0.5,2.5]'
p1009
(dp1010
g7
F0.9872778654098511
sg8
F0.005842488252115282
ssS'tag:[40.5,42.5]'
p1011
(dp1012
g7
F0.9853709936141968
sg8
F0.014893730910313466
ssS'tag:[20.5,22.5]'
p1013
(dp1014
g7
F0.9846712946891785
sg8
F0.0004828552647934802
ssS'tag:[10.5,12.5]'
p1015
(dp1016
g7
F0.9866277575492859
sg8
F0.00035706146502840683
ssS'tag:[26.5,28.5]'
p1017
(dp1018
g7
F0.9820562601089478
sg8
F0.0010375713157379967
ssS'tag:[36.5,38.5]'
p1019
(dp1020
g7
F0.9695842266082764
sg8
F0.0064808109206902585
ssS'tag:[4.5,6.5]'
p1021
(dp1022
g7
F0.9879195690155029
sg8
F0.0010152614969558267
ssssS'MC_NUM_MediumID2016_DEN_genTracks_PAR_vtx'
p1023
(dp1024
S'tag_nVertices_ratio'
p1025
(dp1026
S'tag:[30.5,32.5]'
p1027
(dp1028
g7
F0.9941211342811584
sg8
F0.0018272560422253749
ssS'tag:[46.5,48.5]'
p1029
(dp1030
g7
F0.9084044098854065
sg8
F0.03620401144821005
ssS'tag:[28.5,30.5]'
p1031
(dp1032
g7
F0.9936466217041016
sg8
F0.0012660039833847624
ssS'tag:[44.5,46.5]'
p1033
(dp1034
g7
F0.9758511781692505
sg8
F0.026958338362084326
ssS'tag:[6.5,8.5]'
p1035
(dp1036
g7
F0.9946380853652954
sg8
F0.00041999352912997206
ssS'tag:[14.5,16.5]'
p1037
(dp1038
g7
F0.9940681457519531
sg8
F0.00025474234972958977
ssS'tag:[24.5,26.5]'
p1039
(dp1040
g7
F0.9936137199401855
sg8
F0.0006586838624133125
ssS'tag:[34.5,36.5]'
p1041
(dp1042
g7
F0.988516628742218
sg8
F0.00388900872692032
ssS'tag:[8.5,10.5]'
p1043
(dp1044
g7
F0.9940035343170166
sg8
F0.000307878378026878
ssS'tag:[18.5,20.5]'
p1045
(dp1046
g7
F0.9945662617683411
sg8
F0.0003264252016768184
ssS'tag:[16.5,18.5]'
p1047
(dp1048
g7
F0.9944403171539307
sg8
F0.00028151953323705975
ssS'tag:[32.5,34.5]'
p1049
(dp1050
g7
F0.9900290369987488
sg8
F0.002688285272148317
ssS'tag:[48.5,50.5]'
p1051
(dp1052
g7
F0.8541455864906311
sg8
F0.053711599182503234
ssS'tag:[22.5,24.5]'
p1053
(dp1054
g7
F0.9944112300872803
sg8
F0.0005004945162447547
ssS'tag:[42.5,44.5]'
p1055
(dp1056
g7
F1.0082279443740845
sg8
F0.020061618757084596
ssS'tag:[38.5,40.5]'
p1057
(dp1058
g7
F1.0019067525863647
sg8
F0.009103082311390596
ssS'tag:[2.5,4.5]'
p1059
(dp1060
g7
F0.9969708323478699
sg8
F0.0015937218258802335
ssS'tag:[12.5,14.5]'
p1061
(dp1062
g7
F0.9947147369384766
sg8
F0.000247522669703234
ssS'tag:[0.5,2.5]'
p1063
(dp1064
g7
F0.9950054287910461
sg8
F0.003785573601882568
ssS'tag:[40.5,42.5]'
p1065
(dp1066
g7
F0.9991491436958313
sg8
F0.013625106922352725
ssS'tag:[20.5,22.5]'
p1067
(dp1068
g7
F0.9942604899406433
sg8
F0.0003941938659707966
ssS'tag:[10.5,12.5]'
p1069
(dp1070
g7
F0.994374692440033
sg8
F0.00026053678400840406
ssS'tag:[26.5,28.5]'
p1071
(dp1072
g7
F0.9947806596755981
sg8
F0.0008991965726520768
ssS'tag:[36.5,38.5]'
p1073
(dp1074
g7
F0.9905574917793274
sg8
F0.005855292064127372
ssS'tag:[4.5,6.5]'
p1075
(dp1076
g7
F0.9947072267532349
sg8
F0.0007060062782829222
ssssS'MC_NUM_MediumID_DEN_genTracks_PAR_pt'
p1077
(dp1078
S'pt_ratio'
p1079
(dp1080
S'pt:[25.0,30.0]'
p1081
(dp1082
g7
F0.9969685673713684
sg8
F0.0005178947192341942
ssS'pt:[30.0,40.0]'
p1083
(dp1084
g7
F0.995818018913269
sg8
F0.00016633322112543403
ssS'pt:[60.0,120.0]'
p1085
(dp1086
g7
F0.9975816011428833
sg8
F0.0011255563635965509
ssS'pt:[120.0,200.0]'
p1087
(dp1088
g7
F1.005232572555542
sg8
F0.0038015275374974175
ssS'pt:[20.0,25.0]'
p1089
(dp1090
g7
F1.0061172246932983
sg8
F0.001166785385180217
ssS'pt:[40.0,50.0]'
p1091
(dp1092
g7
F0.997536301612854
sg8
F0.000144614424304154
ssS'pt:[50.0,60.0]'
p1093
(dp1094
g7
F0.9914204478263855
sg8
F0.0004656086188484357
ssssS'MC_NUM_LooseID_DEN_genTracks_PAR_pt'
p1095
(dp1096
S'pt_ratio'
p1097
(dp1098
S'pt:[25.0,30.0]'
p1099
(dp1100
g7
F1.001575231552124
sg8
F0.0002086697596980781
ssS'pt:[30.0,40.0]'
p1101
(dp1102
g7
F1.0005320310592651
sg8
F0.0001393307379412678
ssS'pt:[60.0,120.0]'
p1103
(dp1104
g7
F1.0009957551956177
sg8
F0.0005909387732892367
ssS'pt:[120.0,200.0]'
p1105
(dp1106
g7
F1.0000007152557373
sg8
F0.003064508162498973
ssS'pt:[20.0,25.0]'
p1107
(dp1108
g7
F1.0013750791549683
sg8
F0.00024720633258193576
ssS'pt:[40.0,50.0]'
p1109
(dp1110
g7
F0.9992032647132874
sg8
F0.00011648097225913996
ssS'pt:[50.0,60.0]'
p1111
(dp1112
g7
F0.995587170124054
sg8
F0.00042383539303025993
ssssS'MC_NUM_TightID_DEN_genTracks_PAR_eta'
p1113
(dp1114
S'eta_ratio'
p1115
(dp1116
S'eta:[-0.2,0.2]'
p1117
(dp1118
g7
F0.9909452199935913
sg8
F0.0003891802066554015
ssS'eta:[-2.4,-2.1]'
p1119
(dp1120
g7
F0.9698330760002136
sg8
F0.0007838038780587183
ssS'eta:[0.3,0.9]'
p1121
(dp1122
g7
F0.9886704683303833
sg8
F0.0003147669267694091
ssS'eta:[-0.9,-0.3]'
p1123
(dp1124
g7
F0.9893344640731812
sg8
F0.00030845568233293496
ssS'eta:[0.2,0.3]'
p1125
(dp1126
g7
F0.9653348326683044
sg8
F0.0013486034232286716
ssS'eta:[0.9,1.2]'
p1127
(dp1128
g7
F0.9799360036849976
sg8
F0.0005188165813900716
ssS'eta:[-1.2,-0.9]'
p1129
(dp1130
g7
F0.9821233153343201
sg8
F0.0004947577048156673
ssS'eta:[2.1,2.4]'
p1131
(dp1132
g7
F0.9731165766716003
sg8
F0.0007348962199012715
ssS'eta:[-1.6,-1.2]'
p1133
(dp1134
g7
F0.9945523142814636
sg8
F0.00040450990957783487
ssS'eta:[1.2,1.6]'
p1135
(dp1136
g7
F0.9918540120124817
sg8
F0.0005832558646361196
ssS'eta:[-2.1,-1.6]'
p1137
(dp1138
g7
F0.9813470840454102
sg8
F0.0003830005065762724
ssS'eta:[-0.3,-0.2]'
p1139
(dp1140
g7
F0.9673648476600647
sg8
F0.001302990710053981
ssS'eta:[1.6,2.1]'
p1141
(dp1142
g7
F0.9840106964111328
sg8
F0.00042837580949807924
ssss.