(dp0
S'MC_NUM_HighPtID_DEN_genTracks_PAR_newpt'
p1
(dp2
S'pair_ne_ratio'
p3
(dp4
S'pair:[120.0,200.0]'
p5
(dp6
S'value'
p7
F1.0176966190338135
sS'error'
p8
F0.004054015962070747
ssS'pair:[21.0,25.0]'
p9
(dp10
g7
F0.9896275997161865
sg8
F0.00129441746895933
ssS'pair:[55.0,60.0]'
p11
(dp12
g7
F0.979849636554718
sg8
F0.001131070542852627
ssS'pair:[25.0,30.0]'
p13
(dp14
g7
F0.9827945232391357
sg8
F0.000600085270544469
ssS'pair:[30.0,40.0]'
p15
(dp16
g7
F0.9817434549331665
sg8
F0.0002159730374232245
ssS'pair:[40.0,50.0]'
p17
(dp18
g7
F0.9819466471672058
sg8
F0.00019282994748835608
ssS'pair:[50.0,55.0]'
p19
(dp20
g7
F0.978136420249939
sg8
F0.0006789963733204165
ssS'pair:[60.0,120.0]'
p21
(dp22
g7
F0.9879187345504761
sg8
F0.0013066583837040655
ssssS'MC_NUM_TightID_DEN_genTracks_PAR_pt_eta'
p23
(dp24
S'pt_abseta_ratio'
p25
(dp26
S'pt:[25.0,30.0]'
p27
(dp28
S'abseta:[0.0,0.9]'
p29
(dp30
g7
F0.9797465801239014
sg8
F0.001092124519623354
ssS'abseta:[1.2,2.1]'
p31
(dp32
g7
F0.9822589159011841
sg8
F0.000842037886768564
ssS'abseta:[2.1,2.4]'
p33
(dp34
g7
F0.969707727432251
sg8
F0.0017903257962958317
ssS'abseta:[0.9,1.2]'
p35
(dp36
g7
F0.9593234658241272
sg8
F0.002070114564159865
sssS'pt:[30.0,40.0]'
p37
(dp38
S'abseta:[0.0,0.9]'
p39
(dp40
g7
F0.9817562103271484
sg8
F0.00038002210729713433
ssS'abseta:[1.2,2.1]'
p41
(dp42
g7
F0.9844525456428528
sg8
F0.00032361704636440564
ssS'abseta:[2.1,2.4]'
p43
(dp44
g7
F0.9677866101264954
sg8
F0.0009591146269626162
ssS'abseta:[0.9,1.2]'
p45
(dp46
g7
F0.9651622772216797
sg8
F0.002115993537169227
sssS'pt:[60.0,120.0]'
p47
(dp48
S'abseta:[0.0,0.9]'
p49
(dp50
g7
F0.9928048849105835
sg8
F0.002035541383546382
ssS'abseta:[1.2,2.1]'
p51
(dp52
g7
F0.9889352917671204
sg8
F0.0020186379564014
ssS'abseta:[2.1,2.4]'
p53
(dp54
g7
F0.9631072282791138
sg8
F0.005781618557272223
ssS'abseta:[0.9,1.2]'
p55
(dp56
g7
F0.9675753712654114
sg8
F0.0028036196377916097
sssS'pt:[20.0,25.0]'
p57
(dp58
S'abseta:[0.0,0.9]'
p59
(dp60
g7
F0.9807786345481873
sg8
F0.0027776162077199924
ssS'abseta:[1.2,2.1]'
p61
(dp62
g7
F0.9825835824012756
sg8
F0.0016685161449964546
ssS'abseta:[2.1,2.4]'
p63
(dp64
g7
F0.9702292084693909
sg8
F0.003056073974366206
ssS'abseta:[0.9,1.2]'
p65
(dp66
g7
F0.9616560935974121
sg8
F0.0034451047278568694
sssS'pt:[40.0,50.0]'
p67
(dp68
S'abseta:[0.0,0.9]'
p69
(dp70
g7
F0.9827232956886292
sg8
F0.000289626425232557
ssS'abseta:[1.2,2.1]'
p71
(dp72
g7
F0.9878162741661072
sg8
F0.0002735657004057348
ssS'abseta:[2.1,2.4]'
p73
(dp74
g7
F0.9707700610160828
sg8
F0.003717076032988249
ssS'abseta:[0.9,1.2]'
p75
(dp76
g7
F0.967987596988678
sg8
F0.0004985189212241826
sssS'pt:[50.0,60.0]'
p77
(dp78
S'abseta:[0.0,0.9]'
p79
(dp80
g7
F0.9795855283737183
sg8
F0.0009003446578322215
ssS'abseta:[1.2,2.1]'
p81
(dp82
g7
F0.985261082649231
sg8
F0.0009073008566463939
ssS'abseta:[2.1,2.4]'
p83
(dp84
g7
F0.9677640199661255
sg8
F0.002790088107408422
ssS'abseta:[0.9,1.2]'
p85
(dp86
g7
F0.9696372747421265
sg8
F0.0013756669305643534
ssssS'abseta_pt_ratio'
p87
(dp88
S'abseta:[0.0,0.9]'
p89
(dp90
S'pt:[25.0,30.0]'
p91
(dp92
g7
F0.9797465801239014
sg8
F0.001092124519623354
ssS'pt:[30.0,40.0]'
p93
(dp94
g7
F0.9817562103271484
sg8
F0.00038002210729713433
ssS'pt:[60.0,120.0]'
p95
(dp96
g7
F0.9928048849105835
sg8
F0.002035541383546382
ssS'pt:[20.0,25.0]'
p97
(dp98
g7
F0.9807786345481873
sg8
F0.0027776162077199924
ssS'pt:[40.0,50.0]'
p99
(dp100
g7
F0.9827232956886292
sg8
F0.000289626425232557
ssS'pt:[50.0,60.0]'
p101
(dp102
g7
F0.9795855283737183
sg8
F0.0009003446578322215
sssS'abseta:[1.2,2.1]'
p103
(dp104
S'pt:[25.0,30.0]'
p105
(dp106
g7
F0.9822589159011841
sg8
F0.000842037886768564
ssS'pt:[30.0,40.0]'
p107
(dp108
g7
F0.9844525456428528
sg8
F0.00032361704636440564
ssS'pt:[60.0,120.0]'
p109
(dp110
g7
F0.9889352917671204
sg8
F0.0020186379564014
ssS'pt:[20.0,25.0]'
p111
(dp112
g7
F0.9825835824012756
sg8
F0.0016685161449964546
ssS'pt:[40.0,50.0]'
p113
(dp114
g7
F0.9878162741661072
sg8
F0.0002735657004057348
ssS'pt:[50.0,60.0]'
p115
(dp116
g7
F0.985261082649231
sg8
F0.0009073008566463939
sssS'abseta:[2.1,2.4]'
p117
(dp118
S'pt:[25.0,30.0]'
p119
(dp120
g7
F0.969707727432251
sg8
F0.0017903257962958317
ssS'pt:[30.0,40.0]'
p121
(dp122
g7
F0.9677866101264954
sg8
F0.0009591146269626162
ssS'pt:[60.0,120.0]'
p123
(dp124
g7
F0.9631072282791138
sg8
F0.005781618557272223
ssS'pt:[20.0,25.0]'
p125
(dp126
g7
F0.9702292084693909
sg8
F0.003056073974366206
ssS'pt:[40.0,50.0]'
p127
(dp128
g7
F0.9707700610160828
sg8
F0.003717076032988249
ssS'pt:[50.0,60.0]'
p129
(dp130
g7
F0.9677640199661255
sg8
F0.002790088107408422
sssS'abseta:[0.9,1.2]'
p131
(dp132
S'pt:[25.0,30.0]'
p133
(dp134
g7
F0.9593234658241272
sg8
F0.002070114564159865
ssS'pt:[30.0,40.0]'
p135
(dp136
g7
F0.9651622772216797
sg8
F0.002115993537169227
ssS'pt:[60.0,120.0]'
p137
(dp138
g7
F0.9675753712654114
sg8
F0.0028036196377916097
ssS'pt:[20.0,25.0]'
p139
(dp140
g7
F0.9616560935974121
sg8
F0.0034451047278568694
ssS'pt:[40.0,50.0]'
p141
(dp142
g7
F0.967987596988678
sg8
F0.0004985189212241826
ssS'pt:[50.0,60.0]'
p143
(dp144
g7
F0.9696372747421265
sg8
F0.0013756669305643534
sssssS'MC_NUM_TightID_DEN_genTracks_PAR_pt'
p145
(dp146
S'pt_ratio'
p147
(dp148
S'pt:[25.0,30.0]'
p149
(dp150
g7
F0.9820805788040161
sg8
F0.0006100770209407279
ssS'pt:[30.0,40.0]'
p151
(dp152
g7
F0.9808197021484375
sg8
F0.00022255881185997015
ssS'pt:[60.0,120.0]'
p153
(dp154
g7
F0.9862238764762878
sg8
F0.0013285605207680811
ssS'pt:[120.0,200.0]'
p155
(dp156
g7
F1.0238358974456787
sg8
F0.004378690171550443
ssS'pt:[20.0,25.0]'
p157
(dp158
g7
F0.9908385276794434
sg8
F0.0012595652121070791
ssS'pt:[40.0,50.0]'
p159
(dp160
g7
F0.9809877872467041
sg8
F0.0001858230695224074
ssS'pt:[50.0,60.0]'
p161
(dp162
g7
F0.9782624244689941
sg8
F0.0005920157222814469
ssssS'MC_NUM_HighPtID_DEN_genTracks_PAR_newpt_eta'
p163
(dp164
S'abseta_pair_ne_ratio'
p165
(dp166
S'abseta:[0.0,0.9]'
p167
(dp168
S'pair:[55.0,60.0]'
p169
(dp170
g7
F0.981376588344574
sg8
F0.0017473795116814265
ssS'pair:[25.0,30.0]'
p171
(dp172
g7
F0.9806176424026489
sg8
F0.05009635364483998
ssS'pair:[30.0,40.0]'
p173
(dp174
g7
F0.9828576445579529
sg8
F0.0003537751429121869
ssS'pair:[50.0,55.0]'
p175
(dp176
g7
F0.9799816012382507
sg8
F0.0010408235036870525
ssS'pair:[40.0,50.0]'
p177
(dp178
g7
F0.98393714427948
sg8
F0.00030925306042571
ssS'pair:[60.0,120.0]'
p179
(dp180
g7
F0.9943772554397583
sg8
F0.002033578712324784
ssS'pair:[20.0,25.0]'
p181
(dp182
g7
F0.980766236782074
sg8
F0.003628725799015349
sssS'abseta:[1.2,2.1]'
p183
(dp184
S'pair:[55.0,60.0]'
p185
(dp186
g7
F0.9877950549125671
sg8
F0.0017064125479648606
ssS'pair:[25.0,30.0]'
p187
(dp188
g7
F0.9823727011680603
sg8
F0.0008268409744903803
ssS'pair:[30.0,40.0]'
p189
(dp190
g7
F0.9851763844490051
sg8
F0.0003062068988123496
ssS'pair:[50.0,55.0]'
p191
(dp192
g7
F0.9847807884216309
sg8
F0.0009670106248108887
ssS'pair:[40.0,50.0]'
p193
(dp194
g7
F0.9884915351867676
sg8
F0.0002635069851156275
ssS'pair:[60.0,120.0]'
p195
(dp196
g7
F0.9894613027572632
sg8
F0.001979645449831927
ssS'pair:[20.0,25.0]'
p197
(dp198
g7
F0.9829000234603882
sg8
F0.0016647796406354981
sssS'abseta:[2.1,2.4]'
p199
(dp200
S'pair:[55.0,60.0]'
p201
(dp202
g7
F0.9637609720230103
sg8
F0.005170437398587966
ssS'pair:[25.0,30.0]'
p203
(dp204
g7
F0.96988844871521
sg8
F0.0016834858269214072
ssS'pair:[30.0,40.0]'
p205
(dp206
g7
F0.9755405783653259
sg8
F0.0007734208451426804
ssS'pair:[50.0,55.0]'
p207
(dp208
g7
F0.9700564742088318
sg8
F0.0029332925801751316
ssS'pair:[40.0,50.0]'
p209
(dp210
g7
F0.9727864861488342
sg8
F0.0007973317717819066
ssS'pair:[60.0,120.0]'
p211
(dp212
g7
F0.9652550220489502
sg8
F0.00556110492738241
ssS'pair:[20.0,25.0]'
p213
(dp214
g7
F0.9730678796768188
sg8
F0.006428385257386413
sssS'abseta:[0.9,1.2]'
p215
(dp216
S'pair:[55.0,60.0]'
p217
(dp218
g7
F0.9714453220367432
sg8
F0.002537794628412761
ssS'pair:[25.0,30.0]'
p219
(dp220
g7
F0.9610910415649414
sg8
F0.0016566459432886126
ssS'pair:[30.0,40.0]'
p221
(dp222
g7
F0.9666921496391296
sg8
F0.0019146639179075196
ssS'pair:[50.0,55.0]'
p223
(dp224
g7
F0.9708361029624939
sg8
F0.0015911137967704124
ssS'pair:[40.0,50.0]'
p225
(dp226
g7
F0.9699292778968811
sg8
F0.00047128870012946974
ssS'pair:[60.0,120.0]'
p227
(dp228
g7
F0.9692767858505249
sg8
F0.0027560539962277206
ssS'pair:[20.0,25.0]'
p229
(dp230
g7
F0.9627275466918945
sg8
F0.01833522885145782
ssssS'pair_ne_ratio'
p231
(dp232
S'pair:[55.0,60.0]'
p233
(dp234
S'ne:[2.1,2.4]'
p235
(dp236
g7
F0.9637609720230103
sg8
F0.005170437398587966
ssS'ne:[1.2,2.1]'
p237
(dp238
g7
F0.9877950549125671
sg8
F0.0017064125479648606
ssS'ne:[0.0,0.9]'
p239
(dp240
g7
F0.981376588344574
sg8
F0.0017473795116814265
ssS'ne:[0.9,1.2]'
p241
(dp242
g7
F0.9714453220367432
sg8
F0.002537794628412761
sssS'pair:[25.0,30.0]'
p243
(dp244
S'ne:[2.1,2.4]'
p245
(dp246
g7
F0.96988844871521
sg8
F0.0016834858269214072
ssS'ne:[1.2,2.1]'
p247
(dp248
g7
F0.9823727011680603
sg8
F0.0008268409744903803
ssS'ne:[0.0,0.9]'
p249
(dp250
g7
F0.9806176424026489
sg8
F0.05009635364483998
ssS'ne:[0.9,1.2]'
p251
(dp252
g7
F0.9610910415649414
sg8
F0.0016566459432886126
sssS'pair:[30.0,40.0]'
p253
(dp254
S'ne:[2.1,2.4]'
p255
(dp256
g7
F0.9755405783653259
sg8
F0.0007734208451426804
ssS'ne:[1.2,2.1]'
p257
(dp258
g7
F0.9851763844490051
sg8
F0.0003062068988123496
ssS'ne:[0.0,0.9]'
p259
(dp260
g7
F0.9828576445579529
sg8
F0.0003537751429121869
ssS'ne:[0.9,1.2]'
p261
(dp262
g7
F0.9666921496391296
sg8
F0.0019146639179075196
sssS'pair:[50.0,55.0]'
p263
(dp264
S'ne:[2.1,2.4]'
p265
(dp266
g7
F0.9700564742088318
sg8
F0.0029332925801751316
ssS'ne:[1.2,2.1]'
p267
(dp268
g7
F0.9847807884216309
sg8
F0.0009670106248108887
ssS'ne:[0.0,0.9]'
p269
(dp270
g7
F0.9799816012382507
sg8
F0.0010408235036870525
ssS'ne:[0.9,1.2]'
p271
(dp272
g7
F0.9708361029624939
sg8
F0.0015911137967704124
sssS'pair:[40.0,50.0]'
p273
(dp274
S'ne:[2.1,2.4]'
p275
(dp276
g7
F0.9727864861488342
sg8
F0.0007973317717819066
ssS'ne:[1.2,2.1]'
p277
(dp278
g7
F0.9884915351867676
sg8
F0.0002635069851156275
ssS'ne:[0.0,0.9]'
p279
(dp280
g7
F0.98393714427948
sg8
F0.00030925306042571
ssS'ne:[0.9,1.2]'
p281
(dp282
g7
F0.9699292778968811
sg8
F0.00047128870012946974
sssS'pair:[60.0,120.0]'
p283
(dp284
S'ne:[2.1,2.4]'
p285
(dp286
g7
F0.9652550220489502
sg8
F0.00556110492738241
ssS'ne:[1.2,2.1]'
p287
(dp288
g7
F0.9894613027572632
sg8
F0.001979645449831927
ssS'ne:[0.0,0.9]'
p289
(dp290
g7
F0.9943772554397583
sg8
F0.002033578712324784
ssS'ne:[0.9,1.2]'
p291
(dp292
g7
F0.9692767858505249
sg8
F0.0027560539962277206
sssS'pair:[20.0,25.0]'
p293
(dp294
S'ne:[2.1,2.4]'
p295
(dp296
g7
F0.9730678796768188
sg8
F0.006428385257386413
ssS'ne:[1.2,2.1]'
p297
(dp298
g7
F0.9829000234603882
sg8
F0.0016647796406354981
ssS'ne:[0.0,0.9]'
p299
(dp300
g7
F0.980766236782074
sg8
F0.003628725799015349
ssS'ne:[0.9,1.2]'
p301
(dp302
g7
F0.9627275466918945
sg8
F0.01833522885145782
sssssS'MC_NUM_LooseID_DEN_genTracks_PAR_eta'
p303
(dp304
S'eta_ratio'
p305
(dp306
S'eta:[-0.2,0.2]'
p307
(dp308
g7
F0.9973133206367493
sg8
F0.0003270839945239329
ssS'eta:[-2.4,-2.1]'
p309
(dp310
g7
F0.991809070110321
sg8
F0.0005275667138649628
ssS'eta:[0.3,0.9]'
p311
(dp312
g7
F0.9983513951301575
sg8
F0.0002855307437014639
ssS'eta:[-0.9,-0.3]'
p313
(dp314
g7
F0.9989403486251831
sg8
F0.00029123214467973547
ssS'eta:[0.2,0.3]'
p315
(dp316
g7
F0.9932541847229004
sg8
F0.0007601243754512142
ssS'eta:[0.9,1.2]'
p317
(dp318
g7
F0.993610680103302
sg8
F0.000355941845374613
ssS'eta:[-1.2,-0.9]'
p319
(dp320
g7
F0.994892954826355
sg8
F0.00034173747720784285
ssS'eta:[2.1,2.4]'
p321
(dp322
g7
F0.9940749406814575
sg8
F0.0005083869341966195
ssS'eta:[-1.6,-1.2]'
p323
(dp324
g7
F0.9976792931556702
sg8
F0.00029725017622900414
ssS'eta:[1.2,1.6]'
p325
(dp326
g7
F0.9970688819885254
sg8
F0.0004613639024167671
ssS'eta:[-2.1,-1.6]'
p327
(dp328
g7
F0.9974891543388367
sg8
F0.00023244607466989776
ssS'eta:[-0.3,-0.2]'
p329
(dp330
g7
F0.9934937357902527
sg8
F0.0007506653928499482
ssS'eta:[1.6,2.1]'
p331
(dp332
g7
F0.997406542301178
sg8
F0.0002928063170653311
ssssS'MC_NUM_HighPtID_DEN_genTracks_PAR_eta'
p333
(dp334
S'eta_ratio'
p335
(dp336
S'eta:[-0.2,0.2]'
p337
(dp338
g7
F0.9861491322517395
sg8
F0.00042291740291682103
ssS'eta:[-2.4,-2.1]'
p339
(dp340
g7
F0.9664226770401001
sg8
F0.0007208300985094225
ssS'eta:[0.3,0.9]'
p341
(dp342
g7
F0.9835799932479858
sg8
F0.0003525777814213765
ssS'eta:[-0.9,-0.3]'
p343
(dp344
g7
F0.9843313694000244
sg8
F0.0003535573455963871
ssS'eta:[0.2,0.3]'
p345
(dp346
g7
F0.9512230753898621
sg8
F0.001375633388676413
ssS'eta:[0.9,1.2]'
p347
(dp348
g7
F0.9644005298614502
sg8
F0.0004958307447729061
ssS'eta:[-1.2,-0.9]'
p349
(dp350
g7
F0.967406690120697
sg8
F0.0004874349420576946
ssS'eta:[2.1,2.4]'
p351
(dp352
g7
F0.9687258005142212
sg8
F0.0006756091807389002
ssS'eta:[-1.6,-1.2]'
p353
(dp354
g7
F0.9850426316261292
sg8
F0.0003612713949274306
ssS'eta:[1.2,1.6]'
p355
(dp356
g7
F0.9841288328170776
sg8
F0.0005028088581130022
ssS'eta:[-2.1,-1.6]'
p357
(dp358
g7
F0.9807290434837341
sg8
F0.00032984701605878167
ssS'eta:[-0.3,-0.2]'
p359
(dp360
g7
F0.9611448049545288
sg8
F0.00134902676442059
ssS'eta:[1.6,2.1]'
p361
(dp362
g7
F0.9831995964050293
sg8
F0.00036276190504071736
ssssS'MC_NUM_MediumID2016_DEN_genTracks_PAR_pt_eta'
p363
(dp364
S'pt_abseta_ratio'
p365
(dp366
S'pt:[25.0,30.0]'
p367
(dp368
S'abseta:[0.0,0.9]'
p369
(dp370
g7
F0.9932436943054199
sg8
F0.013774752384019607
ssS'abseta:[1.2,2.1]'
p371
(dp372
g7
F0.9911636114120483
sg8
F0.0007475275183776519
ssS'abseta:[2.1,2.4]'
p373
(dp374
g7
F0.970559298992157
sg8
F0.001490292937731117
ssS'abseta:[0.9,1.2]'
p375
(dp376
g7
F0.9845556616783142
sg8
F0.0014466068939115433
sssS'pt:[30.0,40.0]'
p377
(dp378
S'abseta:[0.0,0.9]'
p379
(dp380
g7
F0.9992121458053589
sg8
F0.012267098274053508
ssS'abseta:[1.2,2.1]'
p381
(dp382
g7
F0.9936203360557556
sg8
F0.0002635691343076989
ssS'abseta:[2.1,2.4]'
p383
(dp384
g7
F0.9695565104484558
sg8
F0.0006309291452495083
ssS'abseta:[0.9,1.2]'
p385
(dp386
g7
F0.9895068407058716
sg8
F0.0004435375276890736
sssS'pt:[60.0,120.0]'
p387
(dp388
S'abseta:[0.0,0.9]'
p389
(dp390
g7
F1.005210280418396
sg8
F0.0019167068862235483
ssS'abseta:[1.2,2.1]'
p391
(dp392
g7
F0.9965069890022278
sg8
F0.0019265163870649026
ssS'abseta:[2.1,2.4]'
p393
(dp394
g7
F0.9704724550247192
sg8
F0.0052721254288822334
ssS'abseta:[0.9,1.2]'
p395
(dp396
g7
F0.9902357459068298
sg8
F0.0025609215874177146
sssS'pt:[20.0,25.0]'
p397
(dp398
S'abseta:[0.0,0.9]'
p399
(dp400
g7
F0.9932605624198914
sg8
F0.002993049595292271
ssS'abseta:[1.2,2.1]'
p401
(dp402
g7
F0.9929244518280029
sg8
F0.0016845123224857662
ssS'abseta:[2.1,2.4]'
p403
(dp404
g7
F0.972319483757019
sg8
F0.0028178443824266146
ssS'abseta:[0.9,1.2]'
p405
(dp406
g7
F0.9875154495239258
sg8
F0.0032818123115515617
sssS'pt:[40.0,50.0]'
p407
(dp408
S'abseta:[0.0,0.9]'
p409
(dp410
g7
F0.9960317611694336
sg8
F0.00021930161591413264
ssS'abseta:[1.2,2.1]'
p411
(dp412
g7
F0.9956413507461548
sg8
F0.008988288939068783
ssS'abseta:[2.1,2.4]'
p413
(dp414
g7
F0.971171498298645
sg8
F0.04177342076990455
ssS'abseta:[0.9,1.2]'
p415
(dp416
g7
F0.9912884831428528
sg8
F0.00032047732270198596
sssS'pt:[50.0,60.0]'
p417
(dp418
S'abseta:[0.0,0.9]'
p419
(dp420
g7
F0.9923930168151855
sg8
F0.0008169088579787231
ssS'abseta:[1.2,2.1]'
p421
(dp422
g7
F0.992656409740448
sg8
F0.0007919233828118822
ssS'abseta:[2.1,2.4]'
p423
(dp424
g7
F0.9701074957847595
sg8
F0.002265072690665256
ssS'abseta:[0.9,1.2]'
p425
(dp426
g7
F0.990756630897522
sg8
F0.001078031444029648
ssssS'abseta_pt_ratio'
p427
(dp428
S'abseta:[0.0,0.9]'
p429
(dp430
S'pt:[25.0,30.0]'
p431
(dp432
g7
F0.9932436943054199
sg8
F0.013774752384019607
ssS'pt:[30.0,40.0]'
p433
(dp434
g7
F0.9992121458053589
sg8
F0.012267098274053508
ssS'pt:[60.0,120.0]'
p435
(dp436
g7
F1.005210280418396
sg8
F0.0019167068862235483
ssS'pt:[20.0,25.0]'
p437
(dp438
g7
F0.9932605624198914
sg8
F0.002993049595292271
ssS'pt:[40.0,50.0]'
p439
(dp440
g7
F0.9960317611694336
sg8
F0.00021930161591413264
ssS'pt:[50.0,60.0]'
p441
(dp442
g7
F0.9923930168151855
sg8
F0.0008169088579787231
sssS'abseta:[1.2,2.1]'
p443
(dp444
S'pt:[25.0,30.0]'
p445
(dp446
g7
F0.9911636114120483
sg8
F0.0007475275183776519
ssS'pt:[30.0,40.0]'
p447
(dp448
g7
F0.9936203360557556
sg8
F0.0002635691343076989
ssS'pt:[60.0,120.0]'
p449
(dp450
g7
F0.9965069890022278
sg8
F0.0019265163870649026
ssS'pt:[20.0,25.0]'
p451
(dp452
g7
F0.9929244518280029
sg8
F0.0016845123224857662
ssS'pt:[40.0,50.0]'
p453
(dp454
g7
F0.9956413507461548
sg8
F0.008988288939068783
ssS'pt:[50.0,60.0]'
p455
(dp456
g7
F0.992656409740448
sg8
F0.0007919233828118822
sssS'abseta:[2.1,2.4]'
p457
(dp458
S'pt:[25.0,30.0]'
p459
(dp460
g7
F0.970559298992157
sg8
F0.001490292937731117
ssS'pt:[30.0,40.0]'
p461
(dp462
g7
F0.9695565104484558
sg8
F0.0006309291452495083
ssS'pt:[60.0,120.0]'
p463
(dp464
g7
F0.9704724550247192
sg8
F0.0052721254288822334
ssS'pt:[20.0,25.0]'
p465
(dp466
g7
F0.972319483757019
sg8
F0.0028178443824266146
ssS'pt:[40.0,50.0]'
p467
(dp468
g7
F0.971171498298645
sg8
F0.04177342076990455
ssS'pt:[50.0,60.0]'
p469
(dp470
g7
F0.9701074957847595
sg8
F0.002265072690665256
sssS'abseta:[0.9,1.2]'
p471
(dp472
S'pt:[25.0,30.0]'
p473
(dp474
g7
F0.9845556616783142
sg8
F0.0014466068939115433
ssS'pt:[30.0,40.0]'
p475
(dp476
g7
F0.9895068407058716
sg8
F0.0004435375276890736
ssS'pt:[60.0,120.0]'
p477
(dp478
g7
F0.9902357459068298
sg8
F0.0025609215874177146
ssS'pt:[20.0,25.0]'
p479
(dp480
g7
F0.9875154495239258
sg8
F0.0032818123115515617
ssS'pt:[40.0,50.0]'
p481
(dp482
g7
F0.9912884831428528
sg8
F0.00032047732270198596
ssS'pt:[50.0,60.0]'
p483
(dp484
g7
F0.990756630897522
sg8
F0.001078031444029648
sssssS'MC_NUM_HighPtID_DEN_genTracks_PAR_vtx'
p485
(dp486
S'tag_nVertices_ratio'
p487
(dp488
S'tag:[30.5,32.5]'
p489
(dp490
g7
F0.9403209686279297
sg8
F0.0054347602326093435
ssS'tag:[46.5,48.5]'
p491
(dp492
g7
F0.8400639891624451
sg8
F0.12706825793894633
ssS'tag:[28.5,30.5]'
p493
(dp494
g7
F0.949539065361023
sg8
F0.003509723470129095
ssS'tag:[44.5,46.5]'
p495
(dp496
g7
F0.8313868641853333
sg8
F0.08145367972939593
ssS'tag:[6.5,8.5]'
p497
(dp498
g7
F0.9856995940208435
sg8
F0.00047522296470467516
ssS'tag:[14.5,16.5]'
p499
(dp500
g7
F0.978512704372406
sg8
F0.00035074522165793
ssS'tag:[24.5,26.5]'
p501
(dp502
g7
F0.9593796133995056
sg8
F0.0015261193171380186
ssS'tag:[34.5,36.5]'
p503
(dp504
g7
F0.9237934947013855
sg8
F0.021431416359352234
ssS'tag:[8.5,10.5]'
p505
(dp506
g7
F0.9851686358451843
sg8
F0.0003654569596789252
ssS'tag:[18.5,20.5]'
p507
(dp508
g7
F0.9721190333366394
sg8
F0.0005368710531646181
ssS'tag:[16.5,18.5]'
p509
(dp510
g7
F0.9759884476661682
sg8
F0.00042033586270731285
ssS'tag:[32.5,34.5]'
p511
(dp512
g7
F0.9207596182823181
sg8
F0.008170665358875192
ssS'tag:[48.5,50.5]'
p513
(dp514
g7
F0.9355970025062561
sg8
F0.14612079347615345
ssS'tag:[22.5,24.5]'
p515
(dp516
g7
F0.965294361114502
sg8
F0.0010353810369147641
ssS'tag:[42.5,44.5]'
p517
(dp518
g7
F0.9469094276428223
sg8
F0.06661890089716509
ssS'tag:[38.5,40.5]'
p519
(dp520
g7
F0.8549943566322327
sg8
F0.053891172012996556
ssS'tag:[2.5,4.5]'
p521
(dp522
g7
F0.9932330250740051
sg8
F0.0036707654015500912
ssS'tag:[12.5,14.5]'
p523
(dp524
g7
F0.981154203414917
sg8
F0.00031778951880568734
ssS'tag:[0.5,2.5]'
p525
(dp526
g7
F0.9908207058906555
sg8
F0.00505384518692198
ssS'tag:[40.5,42.5]'
p527
(dp528
g7
F0.8298859000205994
sg8
F0.034959916550082695
ssS'tag:[20.5,22.5]'
p529
(dp530
g7
F0.9690321683883667
sg8
F0.000730731182852531
ssS'tag:[10.5,12.5]'
p531
(dp532
g7
F0.9830516576766968
sg8
F0.00032061489272586165
ssS'tag:[26.5,28.5]'
p533
(dp534
g7
F0.9515494108200073
sg8
F0.0022938099986206653
ssS'tag:[36.5,38.5]'
p535
(dp536
g7
F0.9039517641067505
sg8
F0.01786449964560904
ssS'tag:[4.5,6.5]'
p537
(dp538
g7
F0.9875302314758301
sg8
F0.0007803828057989835
ssssS'MC_NUM_MediumID_DEN_genTracks_PAR_vtx'
p539
(dp540
S'tag_nVertices_ratio'
p541
(dp542
S'tag:[30.5,32.5]'
p543
(dp544
g7
F0.973832368850708
sg8
F0.005267358597470984
ssS'tag:[46.5,48.5]'
p545
(dp546
g7
F0.8753722906112671
sg8
F0.08360356391731343
ssS'tag:[28.5,30.5]'
p547
(dp548
g7
F0.9791533350944519
sg8
F0.0033889405000319126
ssS'tag:[44.5,46.5]'
p549
(dp550
g7
F0.9603376984596252
sg8
F0.07634842089501687
ssS'tag:[6.5,8.5]'
p551
(dp552
g7
F0.9909675121307373
sg8
F0.00035767636757112124
ssS'tag:[14.5,16.5]'
p553
(dp554
g7
F0.9849391579627991
sg8
F0.0003027281790142177
ssS'tag:[24.5,26.5]'
p555
(dp556
g7
F0.97726970911026
sg8
F0.001458884011267945
ssS'tag:[34.5,36.5]'
p557
(dp558
g7
F0.9725169539451599
sg8
F0.011858713661741013
ssS'tag:[8.5,10.5]'
p559
(dp560
g7
F0.9896577000617981
sg8
F0.000280700732742113
ssS'tag:[18.5,20.5]'
p561
(dp562
g7
F0.9812358021736145
sg8
F0.0004883789583148338
ssS'tag:[16.5,18.5]'
p563
(dp564
g7
F0.9835322499275208
sg8
F0.0003744202237895825
ssS'tag:[32.5,34.5]'
p565
(dp566
g7
F0.9676471948623657
sg8
F0.007905865715559986
ssS'tag:[48.5,50.5]'
p567
(dp568
g7
F0.9749807715415955
sg8
F0.1324453449518198
ssS'tag:[22.5,24.5]'
p569
(dp570
g7
F0.9794453382492065
sg8
F0.0009723955348876688
ssS'tag:[42.5,44.5]'
p571
(dp572
g7
F1.011439561843872
sg8
F0.1597928425602956
ssS'tag:[38.5,40.5]'
p573
(dp574
g7
F0.935492217540741
sg8
F0.025995242112014177
ssS'tag:[2.5,4.5]'
p575
(dp576
g7
F0.9948446154594421
sg8
F0.0012468794017393941
ssS'tag:[12.5,14.5]'
p577
(dp578
g7
F0.9865966439247131
sg8
F0.00026596358179532473
ssS'tag:[0.5,2.5]'
p579
(dp580
g7
F0.9942741990089417
sg8
F0.0032724786183767696
ssS'tag:[40.5,42.5]'
p581
(dp582
g7
F0.9162122011184692
sg8
F0.034890667412505294
ssS'tag:[20.5,22.5]'
p583
(dp584
g7
F0.9805545210838318
sg8
F0.0006778769079387214
ssS'tag:[10.5,12.5]'
p585
(dp586
g7
F0.9882870316505432
sg8
F0.00025750368530536743
ssS'tag:[26.5,28.5]'
p587
(dp588
g7
F0.9757054448127747
sg8
F0.002186379386342293
ssS'tag:[36.5,38.5]'
p589
(dp590
g7
F0.9604379534721375
sg8
F0.017522885655528567
ssS'tag:[4.5,6.5]'
p591
(dp592
g7
F0.9913798570632935
sg8
F0.0005644949014013863
ssssS'MC_NUM_MediumID2016_DEN_genTracks_PAR_pt'
p593
(dp594
S'pt_ratio'
p595
(dp596
S'pt:[25.0,30.0]'
p597
(dp598
g7
F0.9933827519416809
sg8
F0.0005335789544410743
ssS'pt:[30.0,40.0]'
p599
(dp600
g7
F0.9930760860443115
sg8
F0.012755801857480563
ssS'pt:[60.0,120.0]'
p601
(dp602
g7
F0.99962317943573
sg8
F0.005617184791530899
ssS'pt:[120.0,200.0]'
p603
(dp604
g7
F0.7070494890213013
sg8
F0.17053370427441383
ssS'pt:[20.0,25.0]'
p605
(dp606
g7
F1.0021203756332397
sg8
F0.0013607171590085247
ssS'pt:[40.0,50.0]'
p607
(dp608
g7
F0.9939773082733154
sg8
F0.00014299827233386136
ssS'pt:[50.0,60.0]'
p609
(dp610
g7
F0.9908713102340698
sg8
F0.0005210642661261531
ssssS'MC_NUM_LooseID_DEN_genTracks_PAR_vtx'
p611
(dp612
S'tag_nVertices_ratio'
p613
(dp614
S'tag:[30.5,32.5]'
p615
(dp616
g7
F0.9984294772148132
sg8
F0.005147577726627516
ssS'tag:[46.5,48.5]'
p617
(dp618
g7
F0.9284895658493042
sg8
F0.07736208347127901
ssS'tag:[28.5,30.5]'
p619
(dp620
g7
F1.0016988515853882
sg8
F0.003206260341175495
ssS'tag:[44.5,46.5]'
p621
(dp622
g7
F1.0048155784606934
sg8
F0.9015367570830913
ssS'tag:[6.5,8.5]'
p623
(dp624
g7
F0.9980769753456116
sg8
F0.00026251710159454694
ssS'tag:[14.5,16.5]'
p625
(dp626
g7
F0.9969736933708191
sg8
F0.00026591045272674087
ssS'tag:[24.5,26.5]'
p627
(dp628
g7
F0.996902346611023
sg8
F0.0013891391883895526
ssS'tag:[34.5,36.5]'
p629
(dp630
g7
F1.0018376111984253
sg8
F0.01081167325729209
ssS'tag:[8.5,10.5]'
p631
(dp632
g7
F0.9974650740623474
sg8
F0.0002157732406475492
ssS'tag:[18.5,20.5]'
p633
(dp634
g7
F0.9963392019271851
sg8
F0.00045013379704895903
ssS'tag:[16.5,18.5]'
p635
(dp636
g7
F0.9968589544296265
sg8
F0.00033585666347738603
ssS'tag:[32.5,34.5]'
p637
(dp638
g7
F0.9917264580726624
sg8
F0.007914385681790951
ssS'tag:[48.5,50.5]'
p639
(dp640
g7
F0.9717320203781128
sg8
F0.1335200158173057
ssS'tag:[22.5,24.5]'
p641
(dp642
g7
F0.9977227449417114
sg8
F0.0009222953194814363
ssS'tag:[42.5,44.5]'
p643
(dp644
g7
F1.002062439918518
sg8
F0.02838917949271322
ssS'tag:[38.5,40.5]'
p645
(dp646
g7
F0.969383955001831
sg8
F0.02596845955481535
ssS'tag:[2.5,4.5]'
p647
(dp648
g7
F0.9993197917938232
sg8
F0.000831882800193857
ssS'tag:[12.5,14.5]'
p649
(dp650
g7
F0.9971550107002258
sg8
F0.0002247146000159852
ssS'tag:[0.5,2.5]'
p651
(dp652
g7
F0.9991727471351624
sg8
F0.0020958632851089524
ssS'tag:[40.5,42.5]'
p653
(dp654
g7
F0.9394564032554626
sg8
F0.03501720371847975
ssS'tag:[20.5,22.5]'
p655
(dp656
g7
F0.9970930218696594
sg8
F0.0006335605130645447
ssS'tag:[10.5,12.5]'
p657
(dp658
g7
F0.9972382187843323
sg8
F0.0002084691321047666
ssS'tag:[26.5,28.5]'
p659
(dp660
g7
F0.9967716932296753
sg8
F0.002118626638875946
ssS'tag:[36.5,38.5]'
p661
(dp662
g7
F0.9879767298698425
sg8
F0.017197741964349932
ssS'tag:[4.5,6.5]'
p663
(dp664
g7
F0.9975173473358154
sg8
F0.0003885053226968129
ssssS'MC_NUM_LooseID_DEN_genTracks_PAR_pt_eta'
p665
(dp666
S'pt_abseta_ratio'
p667
(dp668
S'pt:[25.0,30.0]'
p669
(dp670
S'abseta:[0.0,0.9]'
p671
(dp672
g7
F0.9986177682876587
sg8
F0.0009274138451031302
ssS'abseta:[1.2,2.1]'
p673
(dp674
g7
F0.9988446235656738
sg8
F0.0007211703961572928
ssS'abseta:[2.1,2.4]'
p675
(dp676
g7
F0.9952967166900635
sg8
F0.0012724560742118543
ssS'abseta:[0.9,1.2]'
p677
(dp678
g7
F0.994640052318573
sg8
F0.0013424818206316084
sssS'pt:[30.0,40.0]'
p679
(dp680
S'abseta:[0.0,0.9]'
p681
(dp682
g7
F0.9996036887168884
sg8
F0.0002349116458855804
ssS'abseta:[1.2,2.1]'
p683
(dp684
g7
F0.9998903274536133
sg8
F0.00023225503482792614
ssS'abseta:[2.1,2.4]'
p685
(dp686
g7
F0.9941646456718445
sg8
F0.00046212267900349794
ssS'abseta:[0.9,1.2]'
p687
(dp688
g7
F0.9966328740119934
sg8
F0.001036553881814731
sssS'pt:[60.0,120.0]'
p689
(dp690
S'abseta:[0.0,0.9]'
p691
(dp692
g7
F1.0010186433792114
sg8
F0.0010420100586961262
ssS'abseta:[1.2,2.1]'
p693
(dp694
g7
F1.00063955783844
sg8
F0.0017810720272219765
ssS'abseta:[2.1,2.4]'
p695
(dp696
g7
F0.9940686821937561
sg8
F0.005041536243183301
ssS'abseta:[0.9,1.2]'
p697
(dp698
g7
F0.9941654205322266
sg8
F0.002494128732853912
sssS'pt:[20.0,25.0]'
p699
(dp700
S'abseta:[0.0,0.9]'
p701
(dp702
g7
F0.9988544583320618
sg8
F0.002620459224722078
ssS'abseta:[1.2,2.1]'
p703
(dp704
g7
F1.0006859302520752
sg8
F0.0014988012079694905
ssS'abseta:[2.1,2.4]'
p705
(dp706
g7
F0.9989991188049316
sg8
F0.0024800433088898663
ssS'abseta:[0.9,1.2]'
p707
(dp708
g7
F1.0004130601882935
sg8
F0.003151764888046038
sssS'pt:[40.0,50.0]'
p709
(dp710
S'abseta:[0.0,0.9]'
p711
(dp712
g7
F1.0000452995300293
sg8
F0.0001346285764860902
ssS'abseta:[1.2,2.1]'
p713
(dp714
g7
F1.0013058185577393
sg8
F0.00019380557138511906
ssS'abseta:[2.1,2.4]'
p715
(dp716
g7
F0.9958854913711548
sg8
F0.001999678868791044
ssS'abseta:[0.9,1.2]'
p717
(dp718
g7
F0.9968463778495789
sg8
F0.00026384434669587313
sssS'pt:[50.0,60.0]'
p719
(dp720
S'abseta:[0.0,0.9]'
p721
(dp722
g7
F0.9964639544487
sg8
F0.0007135658283751831
ssS'abseta:[1.2,2.1]'
p723
(dp724
g7
F0.9970436096191406
sg8
F0.0007521037782517697
ssS'abseta:[2.1,2.4]'
p725
(dp726
g7
F0.9950470924377441
sg8
F0.0019241766143928759
ssS'abseta:[0.9,1.2]'
p727
(dp728
g7
F0.9947446584701538
sg8
F0.0009938394447053867
ssssS'abseta_pt_ratio'
p729
(dp730
S'abseta:[0.0,0.9]'
p731
(dp732
S'pt:[25.0,30.0]'
p733
(dp734
g7
F0.9986177682876587
sg8
F0.0009274138451031302
ssS'pt:[30.0,40.0]'
p735
(dp736
g7
F0.9996036887168884
sg8
F0.0002349116458855804
ssS'pt:[60.0,120.0]'
p737
(dp738
g7
F1.0010186433792114
sg8
F0.0010420100586961262
ssS'pt:[20.0,25.0]'
p739
(dp740
g7
F0.9988544583320618
sg8
F0.002620459224722078
ssS'pt:[40.0,50.0]'
p741
(dp742
g7
F1.0000452995300293
sg8
F0.0001346285764860902
ssS'pt:[50.0,60.0]'
p743
(dp744
g7
F0.9964639544487
sg8
F0.0007135658283751831
sssS'abseta:[1.2,2.1]'
p745
(dp746
S'pt:[25.0,30.0]'
p747
(dp748
g7
F0.9988446235656738
sg8
F0.0007211703961572928
ssS'pt:[30.0,40.0]'
p749
(dp750
g7
F0.9998903274536133
sg8
F0.00023225503482792614
ssS'pt:[60.0,120.0]'
p751
(dp752
g7
F1.00063955783844
sg8
F0.0017810720272219765
ssS'pt:[20.0,25.0]'
p753
(dp754
g7
F1.0006859302520752
sg8
F0.0014988012079694905
ssS'pt:[40.0,50.0]'
p755
(dp756
g7
F1.0013058185577393
sg8
F0.00019380557138511906
ssS'pt:[50.0,60.0]'
p757
(dp758
g7
F0.9970436096191406
sg8
F0.0007521037782517697
sssS'abseta:[2.1,2.4]'
p759
(dp760
S'pt:[25.0,30.0]'
p761
(dp762
g7
F0.9952967166900635
sg8
F0.0012724560742118543
ssS'pt:[30.0,40.0]'
p763
(dp764
g7
F0.9941646456718445
sg8
F0.00046212267900349794
ssS'pt:[60.0,120.0]'
p765
(dp766
g7
F0.9940686821937561
sg8
F0.005041536243183301
ssS'pt:[20.0,25.0]'
p767
(dp768
g7
F0.9989991188049316
sg8
F0.0024800433088898663
ssS'pt:[40.0,50.0]'
p769
(dp770
g7
F0.9958854913711548
sg8
F0.001999678868791044
ssS'pt:[50.0,60.0]'
p771
(dp772
g7
F0.9950470924377441
sg8
F0.0019241766143928759
sssS'abseta:[0.9,1.2]'
p773
(dp774
S'pt:[25.0,30.0]'
p775
(dp776
g7
F0.994640052318573
sg8
F0.0013424818206316084
ssS'pt:[30.0,40.0]'
p777
(dp778
g7
F0.9966328740119934
sg8
F0.001036553881814731
ssS'pt:[60.0,120.0]'
p779
(dp780
g7
F0.9941654205322266
sg8
F0.002494128732853912
ssS'pt:[20.0,25.0]'
p781
(dp782
g7
F1.0004130601882935
sg8
F0.003151764888046038
ssS'pt:[40.0,50.0]'
p783
(dp784
g7
F0.9968463778495789
sg8
F0.00026384434669587313
ssS'pt:[50.0,60.0]'
p785
(dp786
g7
F0.9947446584701538
sg8
F0.0009938394447053867
sssssS'MC_NUM_MediumID_DEN_genTracks_PAR_eta'
p787
(dp788
S'eta_ratio'
p789
(dp790
S'eta:[-0.2,0.2]'
p791
(dp792
g7
F0.9903565645217896
sg8
F0.00038046499245978705
ssS'eta:[-2.4,-2.1]'
p793
(dp794
g7
F0.9379306435585022
sg8
F0.0007046728765611189
ssS'eta:[0.3,0.9]'
p795
(dp796
g7
F0.9939860701560974
sg8
F0.0003077297218635818
ssS'eta:[-0.9,-0.3]'
p797
(dp798
g7
F0.993528425693512
sg8
F0.0003132959174496426
ssS'eta:[0.2,0.3]'
p799
(dp800
g7
F0.9846750497817993
sg8
F0.000878099323018025
ssS'eta:[0.9,1.2]'
p801
(dp802
g7
F0.9872485995292664
sg8
F0.00040682603476044685
ssS'eta:[-1.2,-0.9]'
p803
(dp804
g7
F0.9884838461875916
sg8
F0.0003953396323022088
ssS'eta:[2.1,2.4]'
p805
(dp806
g7
F0.9374238848686218
sg8
F0.0006910522776564138
ssS'eta:[-1.6,-1.2]'
p807
(dp808
g7
F0.9894232749938965
sg8
F0.00033570960703388644
ssS'eta:[1.2,1.6]'
p809
(dp810
g7
F0.9885973930358887
sg8
F0.00048622273295489585
ssS'eta:[-2.1,-1.6]'
p811
(dp812
g7
F0.9757183790206909
sg8
F0.0003024920472865865
ssS'eta:[-0.3,-0.2]'
p813
(dp814
g7
F0.979556679725647
sg8
F0.0008659823472190031
ssS'eta:[1.6,2.1]'
p815
(dp816
g7
F0.9790396094322205
sg8
F0.0003413970554943267
ssssS'MC_NUM_MediumID2016_DEN_genTracks_PAR_eta'
p817
(dp818
S'eta_ratio'
p819
(dp820
S'eta:[-0.2,0.2]'
p821
(dp822
g7
F0.9920957088470459
sg8
F0.0003674286066986212
ssS'eta:[-2.4,-2.1]'
p823
(dp824
g7
F0.9661015868186951
sg8
F0.000646718333756974
ssS'eta:[0.3,0.9]'
p825
(dp826
g7
F0.9947367906570435
sg8
F0.00030305765826129814
ssS'eta:[-0.9,-0.3]'
p827
(dp828
g7
F0.9954497218132019
sg8
F0.00030689294575401955
ssS'eta:[0.2,0.3]'
p829
(dp830
g7
F0.9862858653068542
sg8
F0.0008715036583514985
ssS'eta:[0.9,1.2]'
p831
(dp832
g7
F0.9866036772727966
sg8
F0.0003975872131341348
ssS'eta:[-1.2,-0.9]'
p833
(dp834
g7
F0.9889447093009949
sg8
F0.00038846633073607776
ssS'eta:[2.1,2.4]'
p835
(dp836
g7
F0.9705889225006104
sg8
F0.0006284551192548506
ssS'eta:[-1.6,-1.2]'
p837
(dp838
g7
F0.9919827580451965
sg8
F0.0003262752788657169
ssS'eta:[1.2,1.6]'
p839
(dp840
g7
F0.991676926612854
sg8
F0.00047995487841176725
ssS'eta:[-2.1,-1.6]'
p841
(dp842
g7
F0.9895031452178955
sg8
F0.0002646172613627073
ssS'eta:[-0.3,-0.2]'
p843
(dp844
g7
F0.9823464155197144
sg8
F0.0008568181920591804
ssS'eta:[1.6,2.1]'
p845
(dp846
g7
F0.9922249913215637
sg8
F0.0003082568403853176
ssssS'MC_NUM_MediumID_DEN_genTracks_PAR_pt_eta'
p847
(dp848
S'pt_abseta_ratio'
p849
(dp850
S'pt:[25.0,30.0]'
p851
(dp852
S'abseta:[0.0,0.9]'
p853
(dp854
g7
F0.9919877648353577
sg8
F0.016518798430169557
ssS'abseta:[1.2,2.1]'
p855
(dp856
g7
F0.9816433787345886
sg8
F0.0007854753224634207
ssS'abseta:[2.1,2.4]'
p857
(dp858
g7
F0.9395685791969299
sg8
F0.0015977931417512597
ssS'abseta:[0.9,1.2]'
p859
(dp860
g7
F0.9839190244674683
sg8
F0.0014636275147945012
sssS'pt:[30.0,40.0]'
p861
(dp862
S'abseta:[0.0,0.9]'
p863
(dp864
g7
F0.9976715445518494
sg8
F0.00027511047633828106
ssS'abseta:[1.2,2.1]'
p865
(dp866
g7
F0.9847559332847595
sg8
F0.01838838158064737
ssS'abseta:[2.1,2.4]'
p867
(dp868
g7
F0.9403879046440125
sg8
F0.0008572278763394559
ssS'abseta:[0.9,1.2]'
p869
(dp870
g7
F0.9896567463874817
sg8
F0.001397170642046033
sssS'pt:[60.0,120.0]'
p871
(dp872
S'abseta:[0.0,0.9]'
p873
(dp874
g7
F1.0038774013519287
sg8
F0.0019366817227833226
ssS'abseta:[1.2,2.1]'
p875
(dp876
g7
F0.9910481572151184
sg8
F0.0019613155813067757
ssS'abseta:[2.1,2.4]'
p877
(dp878
g7
F0.9478592276573181
sg8
F0.005439963592034178
ssS'abseta:[0.9,1.2]'
p879
(dp880
g7
F0.990418553352356
sg8
F0.0025800780277637583
sssS'pt:[20.0,25.0]'
p881
(dp882
S'abseta:[0.0,0.9]'
p883
(dp884
g7
F0.9918506145477295
sg8
F0.002881852763771505
ssS'abseta:[1.2,2.1]'
p885
(dp886
g7
F0.9823899865150452
sg8
F0.001647571052089224
ssS'abseta:[2.1,2.4]'
p887
(dp888
g7
F0.9409470558166504
sg8
F0.0027989046372412013
ssS'abseta:[0.9,1.2]'
p889
(dp890
g7
F0.9874537587165833
sg8
F0.003292075829538295
sssS'pt:[40.0,50.0]'
p891
(dp892
S'abseta:[0.0,0.9]'
p893
(dp894
g7
F0.9943295121192932
sg8
F0.00021722738028983506
ssS'abseta:[1.2,2.1]'
p895
(dp896
g7
F0.9890708923339844
sg8
F0.00024719507757674214
ssS'abseta:[2.1,2.4]'
p897
(dp898
g7
F0.942786693572998
sg8
F0.0008399741711022414
ssS'abseta:[0.9,1.2]'
p899
(dp900
g7
F0.9915696382522583
sg8
F0.0003550179177478803
sssS'pt:[50.0,60.0]'
p901
(dp902
S'abseta:[0.0,0.9]'
p903
(dp904
g7
F0.9909002184867859
sg8
F0.0007706975561583897
ssS'abseta:[1.2,2.1]'
p905
(dp906
g7
F0.9875274300575256
sg8
F0.0008142100741659162
ssS'abseta:[2.1,2.4]'
p907
(dp908
g7
F0.9434888362884521
sg8
F0.002540973874323162
ssS'abseta:[0.9,1.2]'
p909
(dp910
g7
F0.9909276366233826
sg8
F0.0011086452293674182
ssssS'abseta_pt_ratio'
p911
(dp912
S'abseta:[0.0,0.9]'
p913
(dp914
S'pt:[25.0,30.0]'
p915
(dp916
g7
F0.9919877648353577
sg8
F0.016518798430169557
ssS'pt:[30.0,40.0]'
p917
(dp918
g7
F0.9976715445518494
sg8
F0.00027511047633828106
ssS'pt:[60.0,120.0]'
p919
(dp920
g7
F1.0038774013519287
sg8
F0.0019366817227833226
ssS'pt:[20.0,25.0]'
p921
(dp922
g7
F0.9918506145477295
sg8
F0.002881852763771505
ssS'pt:[40.0,50.0]'
p923
(dp924
g7
F0.9943295121192932
sg8
F0.00021722738028983506
ssS'pt:[50.0,60.0]'
p925
(dp926
g7
F0.9909002184867859
sg8
F0.0007706975561583897
sssS'abseta:[1.2,2.1]'
p927
(dp928
S'pt:[25.0,30.0]'
p929
(dp930
g7
F0.9816433787345886
sg8
F0.0007854753224634207
ssS'pt:[30.0,40.0]'
p931
(dp932
g7
F0.9847559332847595
sg8
F0.01838838158064737
ssS'pt:[60.0,120.0]'
p933
(dp934
g7
F0.9910481572151184
sg8
F0.0019613155813067757
ssS'pt:[20.0,25.0]'
p935
(dp936
g7
F0.9823899865150452
sg8
F0.001647571052089224
ssS'pt:[40.0,50.0]'
p937
(dp938
g7
F0.9890708923339844
sg8
F0.00024719507757674214
ssS'pt:[50.0,60.0]'
p939
(dp940
g7
F0.9875274300575256
sg8
F0.0008142100741659162
sssS'abseta:[2.1,2.4]'
p941
(dp942
S'pt:[25.0,30.0]'
p943
(dp944
g7
F0.9395685791969299
sg8
F0.0015977931417512597
ssS'pt:[30.0,40.0]'
p945
(dp946
g7
F0.9403879046440125
sg8
F0.0008572278763394559
ssS'pt:[60.0,120.0]'
p947
(dp948
g7
F0.9478592276573181
sg8
F0.005439963592034178
ssS'pt:[20.0,25.0]'
p949
(dp950
g7
F0.9409470558166504
sg8
F0.0027989046372412013
ssS'pt:[40.0,50.0]'
p951
(dp952
g7
F0.942786693572998
sg8
F0.0008399741711022414
ssS'pt:[50.0,60.0]'
p953
(dp954
g7
F0.9434888362884521
sg8
F0.002540973874323162
sssS'abseta:[0.9,1.2]'
p955
(dp956
S'pt:[25.0,30.0]'
p957
(dp958
g7
F0.9839190244674683
sg8
F0.0014636275147945012
ssS'pt:[30.0,40.0]'
p959
(dp960
g7
F0.9896567463874817
sg8
F0.001397170642046033
ssS'pt:[60.0,120.0]'
p961
(dp962
g7
F0.990418553352356
sg8
F0.0025800780277637583
ssS'pt:[20.0,25.0]'
p963
(dp964
g7
F0.9874537587165833
sg8
F0.003292075829538295
ssS'pt:[40.0,50.0]'
p965
(dp966
g7
F0.9915696382522583
sg8
F0.0003550179177478803
ssS'pt:[50.0,60.0]'
p967
(dp968
g7
F0.9909276366233826
sg8
F0.0011086452293674182
sssssS'MC_NUM_TightID_DEN_genTracks_PAR_vtx'
p969
(dp970
S'tag_nVertices_ratio'
p971
(dp972
S'tag:[30.5,32.5]'
p973
(dp974
g7
F0.9395393133163452
sg8
F0.005452942371535174
ssS'tag:[46.5,48.5]'
p975
(dp976
g7
F0.8405185341835022
sg8
F0.1271378970567499
ssS'tag:[28.5,30.5]'
p977
(dp978
g7
F0.949137270450592
sg8
F0.0035262411148914877
ssS'tag:[44.5,46.5]'
p979
(dp980
g7
F0.8334352970123291
sg8
F0.08166338612939482
ssS'tag:[6.5,8.5]'
p981
(dp982
g7
F0.9842914342880249
sg8
F0.0004981015169259483
ssS'tag:[14.5,16.5]'
p983
(dp984
g7
F0.9777327179908752
sg8
F0.0003610946142212426
ssS'tag:[24.5,26.5]'
p985
(dp986
g7
F0.9583829045295715
sg8
F0.0015358686885145654
ssS'tag:[34.5,36.5]'
p987
(dp988
g7
F0.9228149056434631
sg8
F0.01222985627991742
ssS'tag:[8.5,10.5]'
p989
(dp990
g7
F0.9840800762176514
sg8
F0.00038161556357954135
ssS'tag:[18.5,20.5]'
p991
(dp992
g7
F0.9715183973312378
sg8
F0.0005461189063443875
ssS'tag:[16.5,18.5]'
p993
(dp994
g7
F0.9751896858215332
sg8
F0.00042896466498531925
ssS'tag:[32.5,34.5]'
p995
(dp996
g7
F0.921340823173523
sg8
F0.008184037278118277
ssS'tag:[48.5,50.5]'
p997
(dp998
g7
F0.9387558102607727
sg8
F0.14662218476146047
ssS'tag:[22.5,24.5]'
p999
(dp1000
g7
F0.9642845392227173
sg8
F0.0010436977244985197
ssS'tag:[42.5,44.5]'
p1001
(dp1002
g7
F0.9490647912025452
sg8
F0.06677451088732145
ssS'tag:[38.5,40.5]'
p1003
(dp1004
g7
F0.8565159440040588
sg8
F0.040801899529119424
ssS'tag:[2.5,4.5]'
p1005
(dp1006
g7
F0.9913904666900635
sg8
F0.0017888266877431848
ssS'tag:[12.5,14.5]'
p1007
(dp1008
g7
F0.9801967144012451
sg8
F0.0003287326315293025
ssS'tag:[0.5,2.5]'
p1009
(dp1010
g7
F0.9888048768043518
sg8
F0.005201156240307766
ssS'tag:[40.5,42.5]'
p1011
(dp1012
g7
F0.8282264471054077
sg8
F0.03545019050347455
ssS'tag:[20.5,22.5]'
p1013
(dp1014
g7
F0.9685351848602295
sg8
F0.000740139510357156
ssS'tag:[10.5,12.5]'
p1015
(dp1016
g7
F0.9820655584335327
sg8
F0.0003333144334117488
ssS'tag:[26.5,28.5]'
p1017
(dp1018
g7
F0.9505165219306946
sg8
F0.0023031312599380497
ssS'tag:[36.5,38.5]'
p1019
(dp1020
g7
F0.9022590517997742
sg8
F0.017912736863220462
ssS'tag:[4.5,6.5]'
p1021
(dp1022
g7
F0.9857277274131775
sg8
F0.000821973193646487
ssssS'MC_NUM_MediumID2016_DEN_genTracks_PAR_vtx'
p1023
(dp1024
S'tag_nVertices_ratio'
p1025
(dp1026
S'tag:[30.5,32.5]'
p1027
(dp1028
g7
F0.98601233959198
sg8
F0.005259099429736038
ssS'tag:[46.5,48.5]'
p1029
(dp1030
g7
F0.8837526440620422
sg8
F0.08449808773691078
ssS'tag:[28.5,30.5]'
p1031
(dp1032
g7
F0.9895082712173462
sg8
F0.0033722406325676813
ssS'tag:[44.5,46.5]'
p1033
(dp1034
g7
F0.9825505018234253
sg8
F0.07762278710682258
ssS'tag:[6.5,8.5]'
p1035
(dp1036
g7
F0.9932447671890259
sg8
F0.0003421598251387068
ssS'tag:[14.5,16.5]'
p1037
(dp1038
g7
F0.99028080701828
sg8
F0.0002919592993965097
ssS'tag:[24.5,26.5]'
p1039
(dp1040
g7
F0.9864299893379211
sg8
F0.00144587353054046
ssS'tag:[34.5,36.5]'
p1041
(dp1042
g7
F0.9857218861579895
sg8
F0.011850856958632368
ssS'tag:[8.5,10.5]'
p1043
(dp1044
g7
F0.9925377368927002
sg8
F0.0002689022675582107
ssS'tag:[18.5,20.5]'
p1045
(dp1046
g7
F0.9882752895355225
sg8
F0.00047690018337429534
ssS'tag:[16.5,18.5]'
p1047
(dp1048
g7
F0.9895460605621338
sg8
F0.00036230946635698293
ssS'tag:[32.5,34.5]'
p1049
(dp1050
g7
F0.9783076643943787
sg8
F0.007905763621801329
ssS'tag:[48.5,50.5]'
p1051
(dp1052
g7
F0.9775651097297668
sg8
F0.13435228969615262
ssS'tag:[22.5,24.5]'
p1053
(dp1054
g7
F0.9880578517913818
sg8
F0.0009532168226679043
ssS'tag:[42.5,44.5]'
p1055
(dp1056
g7
F1.0089151859283447
sg8
F0.034870638189289795
ssS'tag:[38.5,40.5]'
p1057
(dp1058
g7
F0.9497324228286743
sg8
F0.025923800992677052
ssS'tag:[2.5,4.5]'
p1059
(dp1060
g7
F0.9961084723472595
sg8
F0.001199972779401413
ssS'tag:[12.5,14.5]'
p1061
(dp1062
g7
F0.9910557270050049
sg8
F0.0002555645826090015
ssS'tag:[0.5,2.5]'
p1063
(dp1064
g7
F0.9954508543014526
sg8
F0.003244474255953767
ssS'tag:[40.5,42.5]'
p1065
(dp1066
g7
F0.9307085871696472
sg8
F0.035095352161224926
ssS'tag:[20.5,22.5]'
p1067
(dp1068
g7
F0.9882478713989258
sg8
F0.000662709251627461
ssS'tag:[10.5,12.5]'
p1069
(dp1070
g7
F0.9920058846473694
sg8
F0.0002461251593919294
ssS'tag:[26.5,28.5]'
p1071
(dp1072
g7
F0.9850907325744629
sg8
F0.0021606879564742667
ssS'tag:[36.5,38.5]'
p1073
(dp1074
g7
F0.9734072685241699
sg8
F0.01750082045344344
ssS'tag:[4.5,6.5]'
p1075
(dp1076
g7
F0.993152379989624
sg8
F0.0005418371544785932
ssssS'MC_NUM_MediumID_DEN_genTracks_PAR_pt'
p1077
(dp1078
S'pt_ratio'
p1079
(dp1080
S'pt:[25.0,30.0]'
p1081
(dp1082
g7
F0.9862533211708069
sg8
F0.0005450952522601143
ssS'pt:[30.0,40.0]'
p1083
(dp1084
g7
F0.9874338507652283
sg8
F0.00017935506236055096
ssS'pt:[60.0,120.0]'
p1085
(dp1086
g7
F0.9968129396438599
sg8
F0.0064541190189792205
ssS'pt:[120.0,200.0]'
p1087
(dp1088
g7
F0.7093566656112671
sg8
F0.16728858695789553
ssS'pt:[20.0,25.0]'
p1089
(dp1090
g7
F0.9931347370147705
sg8
F0.0012009813008763291
ssS'pt:[40.0,50.0]'
p1091
(dp1092
g7
F0.9902621507644653
sg8
F0.0001781160414112066
ssS'pt:[50.0,60.0]'
p1093
(dp1094
g7
F0.9880359768867493
sg8
F0.0005087168147455284
ssssS'MC_NUM_LooseID_DEN_genTracks_PAR_pt'
p1095
(dp1096
S'pt_ratio'
p1097
(dp1098
S'pt:[25.0,30.0]'
p1099
(dp1100
g7
F1.0013514757156372
sg8
F0.000200133047605447
ssS'pt:[30.0,40.0]'
p1101
(dp1102
g7
F1.0000284910202026
sg8
F0.00014778113837113208
ssS'pt:[60.0,120.0]'
p1103
(dp1104
g7
F1.0008244514465332
sg8
F0.00028058735514248226
ssS'pt:[120.0,200.0]'
p1105
(dp1106
g7
F1.0
sg8
F0.0026563754885352586
ssS'pt:[20.0,25.0]'
p1107
(dp1108
g7
F1.0011459589004517
sg8
F0.0002289473384400364
ssS'pt:[40.0,50.0]'
p1109
(dp1110
g7
F0.9994605779647827
sg8
F0.00070904804837975
ssS'pt:[50.0,60.0]'
p1111
(dp1112
g7
F0.9959138631820679
sg8
F0.0006185277853796234
ssssS'MC_NUM_TightID_DEN_genTracks_PAR_eta'
p1113
(dp1114
S'eta_ratio'
p1115
(dp1116
S'eta:[-0.2,0.2]'
p1117
(dp1118
g7
F0.9853901267051697
sg8
F0.00042671864151560206
ssS'eta:[-2.4,-2.1]'
p1119
(dp1120
g7
F0.9658936262130737
sg8
F0.0007704965964583205
ssS'eta:[0.3,0.9]'
p1121
(dp1122
g7
F0.9823668003082275
sg8
F0.00035702435265818375
ssS'eta:[-0.9,-0.3]'
p1123
(dp1124
g7
F0.9832714796066284
sg8
F0.0003581157264436854
ssS'eta:[0.2,0.3]'
p1125
(dp1126
g7
F0.9491426944732666
sg8
F0.0013846446593308818
ssS'eta:[0.9,1.2]'
p1127
(dp1128
g7
F0.9626064300537109
sg8
F0.0005096714810824091
ssS'eta:[-1.2,-0.9]'
p1129
(dp1130
g7
F0.9657585024833679
sg8
F0.0005030666554761114
ssS'eta:[2.1,2.4]'
p1131
(dp1132
g7
F0.9679656028747559
sg8
F0.000727552640466531
ssS'eta:[-1.6,-1.2]'
p1133
(dp1134
g7
F0.9845997095108032
sg8
F0.00037156504906683054
ssS'eta:[1.2,1.6]'
p1135
(dp1136
g7
F0.9838271737098694
sg8
F0.0005107913454919451
ssS'eta:[-2.1,-1.6]'
p1137
(dp1138
g7
F0.9797171950340271
sg8
F0.000363517877787578
ssS'eta:[-0.3,-0.2]'
p1139
(dp1140
g7
F0.959068238735199
sg8
F0.0013600194719176626
ssS'eta:[1.6,2.1]'
p1141
(dp1142
g7
F0.9823022484779358
sg8
F0.0003915435155576453
ssss.