(dp0
S'LooseISO_TightID_vtx'
p1
(dp2
S'tag_nVertices_ratio'
p3
(dp4
S'tag:[30.5,32.5]'
p5
(dp6
S'value'
p7
F0.9992422461509705
sS'error'
p8
F0.0011645774483427579
ssS'tag:[46.5,48.5]'
p9
(dp10
g7
F0.9941418170928955
sg8
F0.015323979431165131
ssS'tag:[28.5,30.5]'
p11
(dp12
g7
F0.9979115724563599
sg8
F0.0008210438792540859
ssS'tag:[44.5,46.5]'
p13
(dp14
g7
F0.9823958873748779
sg8
F0.02025451777611835
ssS'tag:[6.5,8.5]'
p15
(dp16
g7
F0.9995062351226807
sg8
F0.0003778929907777662
ssS'tag:[14.5,16.5]'
p17
(dp18
g7
F0.9996750950813293
sg8
F0.00019557606411652525
ssS'tag:[50.5,52.5]'
p19
(dp20
g7
F1.014021635055542
sg8
F0.06983518836788256
ssS'tag:[24.5,26.5]'
p21
(dp22
g7
F0.999170184135437
sg8
F0.0004454437567659737
ssS'tag:[34.5,36.5]'
p23
(dp24
g7
F0.9972471594810486
sg8
F0.0019865399084997826
ssS'tag:[8.5,10.5]'
p25
(dp26
g7
F0.9999656677246094
sg8
F0.00026800133088213373
ssS'tag:[18.5,20.5]'
p27
(dp28
g7
F0.9993041753768921
sg8
F0.00023807005098146886
ssS'tag:[16.5,18.5]'
p29
(dp30
g7
F0.9996904730796814
sg8
F0.00020986337594511135
ssS'tag:[32.5,34.5]'
p31
(dp32
g7
F0.9958940148353577
sg8
F0.0017022065276746008
ssS'tag:[48.5,50.5]'
p33
(dp34
g7
F1.0052103996276855
sg8
F0.03157029799746558
ssS'tag:[22.5,24.5]'
p35
(dp36
g7
F0.9990786910057068
sg8
F0.0003447225207730295
ssS'tag:[52.5,54.5]'
p37
(dp38
g7
F0.9423677325248718
sg8
F0.07900868521036469
ssS'tag:[42.5,44.5]'
p39
(dp40
g7
F1.002302885055542
sg8
F0.007157901248876518
ssS'tag:[38.5,40.5]'
p41
(dp42
g7
F0.9970695972442627
sg8
F0.004987595051867711
ssS'tag:[2.5,4.5]'
p43
(dp44
g7
F0.9995013475418091
sg8
F0.0017964455351221647
ssS'tag:[12.5,14.5]'
p45
(dp46
g7
F0.9997036457061768
sg8
F0.00019963703515857992
ssS'tag:[0.5,2.5]'
p47
(dp48
g7
F1.0001336336135864
sg8
F0.0037801109011629604
ssS'tag:[40.5,42.5]'
p49
(dp50
g7
F0.9867386817932129
sg8
F0.006773608954054371
ssS'tag:[20.5,22.5]'
p51
(dp52
g7
F0.999432384967804
sg8
F0.000280170938246866
ssS'tag:[10.5,12.5]'
p53
(dp54
g7
F0.9999556541442871
sg8
F0.00022137375844466842
ssS'tag:[26.5,28.5]'
p55
(dp56
g7
F0.9992202520370483
sg8
F0.0005960273910410916
ssS'tag:[36.5,38.5]'
p57
(dp58
g7
F0.9985264539718628
sg8
F0.003411924289836735
ssS'tag:[4.5,6.5]'
p59
(dp60
g7
F0.9995002150535583
sg8
F0.0006235668603009992
ssssS'LooseISO_TightID_pt'
p61
(dp62
S'pt_ratio'
p63
(dp64
S'pt:[25.0,30.0]'
p65
(dp66
g7
F1.0002503395080566
sg8
F0.0004558170314845144
ssS'pt:[30.0,40.0]'
p67
(dp68
g7
F0.9997945427894592
sg8
F0.00014779108442819014
ssS'pt:[60.0,120.0]'
p69
(dp70
g7
F0.9996949434280396
sg8
F0.00017254751621594632
ssS'pt:[120.0,200.0]'
p71
(dp72
g7
F1.0005866289138794
sg8
F0.0011346898659884827
ssS'pt:[20.0,25.0]'
p73
(dp74
g7
F0.9976511001586914
sg8
F0.0008224919405543083
ssS'pt:[40.0,50.0]'
p75
(dp76
g7
F0.9991552829742432
sg8
F6.424868324516426e-05
ssS'pt:[50.0,60.0]'
p77
(dp78
g7
F0.9995531439781189
sg8
F0.00011660479620958634
ssssS'TightISO_MediumID_vtx'
p79
(dp80
S'tag_nVertices_ratio'
p81
(dp82
S'tag:[30.5,32.5]'
p83
(dp84
g7
F0.9925549030303955
sg8
F0.0019512128968921212
ssS'tag:[46.5,48.5]'
p85
(dp86
g7
F0.979491114616394
sg8
F0.024492955873009845
ssS'tag:[28.5,30.5]'
p87
(dp88
g7
F0.9916709661483765
sg8
F0.0013880347923774857
ssS'tag:[44.5,46.5]'
p89
(dp90
g7
F0.9705291986465454
sg8
F0.022186381907757107
ssS'tag:[6.5,8.5]'
p91
(dp92
g7
F0.9973899722099304
sg8
F0.0006056972616142126
ssS'tag:[14.5,16.5]'
p93
(dp94
g7
F0.9958873987197876
sg8
F0.00032452135531805897
ssS'tag:[50.5,52.5]'
p95
(dp96
g7
F0.9999046921730042
sg8
F0.03721865298692612
ssS'tag:[24.5,26.5]'
p97
(dp98
g7
F0.9927806258201599
sg8
F0.000745063547251821
ssS'tag:[34.5,36.5]'
p99
(dp100
g7
F0.9920066595077515
sg8
F0.003936643599575554
ssS'tag:[8.5,10.5]'
p101
(dp102
g7
F0.9972128868103027
sg8
F0.00043534092130254954
ssS'tag:[18.5,20.5]'
p103
(dp104
g7
F0.9943186044692993
sg8
F0.00039182490145550457
ssS'tag:[16.5,18.5]'
p105
(dp106
g7
F0.9951266646385193
sg8
F0.0003479966156291165
ssS'tag:[32.5,34.5]'
p107
(dp108
g7
F0.9904828667640686
sg8
F0.0027595413888280395
ssS'tag:[48.5,50.5]'
p109
(dp110
g7
F0.9256967306137085
sg8
F0.0447247433359366
ssS'tag:[22.5,24.5]'
p111
(dp112
g7
F0.993660032749176
sg8
F0.0005765565767516823
ssS'tag:[52.5,54.5]'
p113
(dp114
g7
F0.9789586663246155
sg8
F0.06050542433749698
ssS'tag:[42.5,44.5]'
p115
(dp116
g7
F0.9912238717079163
sg8
F0.012525308600348898
ssS'tag:[38.5,40.5]'
p117
(dp118
g7
F1.0043281316757202
sg8
F0.0075535659311662135
ssS'tag:[2.5,4.5]'
p119
(dp120
g7
F0.9994072318077087
sg8
F0.002184172021101311
ssS'tag:[12.5,14.5]'
p121
(dp122
g7
F0.9958497285842896
sg8
F0.00032924007704529285
ssS'tag:[0.5,2.5]'
p123
(dp124
g7
F0.9957919120788574
sg8
F0.005728130081485772
ssS'tag:[40.5,42.5]'
p125
(dp126
g7
F0.9773808121681213
sg8
F0.011536452612924289
ssS'tag:[20.5,22.5]'
p127
(dp128
g7
F0.9941390156745911
sg8
F0.00046172990267873056
ssS'tag:[10.5,12.5]'
p129
(dp130
g7
F0.9962608218193054
sg8
F0.0003609938063630853
ssS'tag:[26.5,28.5]'
p131
(dp132
g7
F0.9926614761352539
sg8
F0.000999299875471296
ssS'tag:[36.5,38.5]'
p133
(dp134
g7
F0.9855066537857056
sg8
F0.005007365576292363
ssS'tag:[4.5,6.5]'
p135
(dp136
g7
F0.9968489408493042
sg8
F0.0010085053898002338
ssssS'tkLooseISO_highptID_newpt'
p137
(dp138
S'pair_ne_ratio'
p139
(dp140
S'pair:[120.0,200.0]'
p141
(dp142
g7
F1.0007357597351074
sg8
F0.0010520472440874629
ssS'pair:[21.0,25.0]'
p143
(dp144
g7
F0.9965560436248779
sg8
F0.0008333770734065605
ssS'pair:[55.0,60.0]'
p145
(dp146
g7
F0.9985360503196716
sg8
F0.000241007183855298
ssS'pair:[25.0,30.0]'
p147
(dp148
g7
F0.9984687566757202
sg8
F0.00044284776574164876
ssS'pair:[30.0,40.0]'
p149
(dp150
g7
F0.9984484910964966
sg8
F0.0001487165102847323
ssS'pair:[40.0,50.0]'
p151
(dp152
g7
F0.9983048439025879
sg8
F6.698803444720579e-05
ssS'pair:[50.0,55.0]'
p153
(dp154
g7
F0.998165488243103
sg8
F0.00017602554229236684
ssS'pair:[60.0,120.0]'
p155
(dp156
g7
F0.9985439777374268
sg8
F0.00020086287536096354
ssssS'tkLooseISO_highptID_newpt_eta'
p157
(dp158
S'abseta_pair_ne_ratio'
p159
(dp160
S'abseta:[0.0,0.9]'
p161
(dp162
S'pair:[55.0,60.0]'
p163
(dp164
g7
F0.9973031878471375
sg8
F0.000390997052387071
ssS'pair:[25.0,30.0]'
p165
(dp166
g7
F0.9943628311157227
sg8
F0.0007321430024013869
ssS'pair:[30.0,40.0]'
p167
(dp168
g7
F0.9960184097290039
sg8
F0.00022707428125929175
ssS'pair:[50.0,55.0]'
p169
(dp170
g7
F0.9972920417785645
sg8
F0.0002744896451271197
ssS'pair:[40.0,50.0]'
p171
(dp172
g7
F0.9971151947975159
sg8
F0.00012063603019105329
ssS'pair:[60.0,120.0]'
p173
(dp174
g7
F0.9980480670928955
sg8
F0.00030844597475022305
ssS'pair:[20.0,25.0]'
p175
(dp176
g7
F0.9899613857269287
sg8
F0.0014671938013144283
sssS'abseta:[1.2,2.1]'
p177
(dp178
S'pair:[55.0,60.0]'
p179
(dp180
g7
F1.000047206878662
sg8
F0.0004382916036184143
ssS'pair:[25.0,30.0]'
p181
(dp182
g7
F1.0011941194534302
sg8
F0.0006981979036875624
ssS'pair:[30.0,40.0]'
p183
(dp184
g7
F1.0010615587234497
sg8
F0.000256829724227026
ssS'pair:[50.0,55.0]'
p185
(dp186
g7
F0.9993209838867188
sg8
F0.00028996939306033434
ssS'pair:[40.0,50.0]'
p187
(dp188
g7
F1.0002222061157227
sg8
F0.00013585277871929705
ssS'pair:[60.0,120.0]'
p189
(dp190
g7
F0.9991359114646912
sg8
F0.0003228532178341699
ssS'pair:[20.0,25.0]'
p191
(dp192
g7
F0.9984826445579529
sg8
F0.0011406893653536367
sssS'abseta:[2.1,2.4]'
p193
(dp194
S'pair:[55.0,60.0]'
p195
(dp196
g7
F1.000768780708313
sg8
F0.0007686197601954092
ssS'pair:[25.0,30.0]'
p197
(dp198
g7
F1.0014758110046387
sg8
F0.0010653321062700717
ssS'pair:[30.0,40.0]'
p199
(dp200
g7
F1.0004360675811768
sg8
F0.00041149017206780123
ssS'pair:[50.0,55.0]'
p201
(dp202
g7
F0.9999914765357971
sg8
F0.00101629143599954
ssS'pair:[40.0,50.0]'
p203
(dp204
g7
F0.999988853931427
sg8
F0.00015270757063813947
ssS'pair:[60.0,120.0]'
p205
(dp206
g7
F1.0003389120101929
sg8
F0.0007448003140944501
ssS'pair:[20.0,25.0]'
p207
(dp208
g7
F1.0005053281784058
sg8
F0.0017607150571804671
sssS'abseta:[0.9,1.2]'
p209
(dp210
S'pair:[55.0,60.0]'
p211
(dp212
g7
F0.9990993738174438
sg8
F0.00039659564813817775
ssS'pair:[25.0,30.0]'
p213
(dp214
g7
F0.998435914516449
sg8
F0.0013494876104007468
ssS'pair:[30.0,40.0]'
p215
(dp216
g7
F1.0000485181808472
sg8
F0.00042810528137764354
ssS'pair:[50.0,55.0]'
p217
(dp218
g7
F0.9991616606712341
sg8
F0.006207906690691224
ssS'pair:[40.0,50.0]'
p219
(dp220
g7
F0.9990605115890503
sg8
F0.00016798848188594322
ssS'pair:[60.0,120.0]'
p221
(dp222
g7
F0.9992591738700867
sg8
F0.0005493793428887206
ssS'pair:[20.0,25.0]'
p223
(dp224
g7
F0.9954683184623718
sg8
F0.0023186376517567546
ssssS'pair_ne_ratio'
p225
(dp226
S'pair:[55.0,60.0]'
p227
(dp228
S'ne:[2.1,2.4]'
p229
(dp230
g7
F1.000768780708313
sg8
F0.0007686197601954092
ssS'ne:[1.2,2.1]'
p231
(dp232
g7
F1.000047206878662
sg8
F0.0004382916036184143
ssS'ne:[0.0,0.9]'
p233
(dp234
g7
F0.9973031878471375
sg8
F0.000390997052387071
ssS'ne:[0.9,1.2]'
p235
(dp236
g7
F0.9990993738174438
sg8
F0.00039659564813817775
sssS'pair:[25.0,30.0]'
p237
(dp238
S'ne:[2.1,2.4]'
p239
(dp240
g7
F1.0014758110046387
sg8
F0.0010653321062700717
ssS'ne:[1.2,2.1]'
p241
(dp242
g7
F1.0011941194534302
sg8
F0.0006981979036875624
ssS'ne:[0.0,0.9]'
p243
(dp244
g7
F0.9943628311157227
sg8
F0.0007321430024013869
ssS'ne:[0.9,1.2]'
p245
(dp246
g7
F0.998435914516449
sg8
F0.0013494876104007468
sssS'pair:[30.0,40.0]'
p247
(dp248
S'ne:[2.1,2.4]'
p249
(dp250
g7
F1.0004360675811768
sg8
F0.00041149017206780123
ssS'ne:[1.2,2.1]'
p251
(dp252
g7
F1.0010615587234497
sg8
F0.000256829724227026
ssS'ne:[0.0,0.9]'
p253
(dp254
g7
F0.9960184097290039
sg8
F0.00022707428125929175
ssS'ne:[0.9,1.2]'
p255
(dp256
g7
F1.0000485181808472
sg8
F0.00042810528137764354
sssS'pair:[50.0,55.0]'
p257
(dp258
S'ne:[2.1,2.4]'
p259
(dp260
g7
F0.9999914765357971
sg8
F0.00101629143599954
ssS'ne:[1.2,2.1]'
p261
(dp262
g7
F0.9993209838867188
sg8
F0.00028996939306033434
ssS'ne:[0.0,0.9]'
p263
(dp264
g7
F0.9972920417785645
sg8
F0.0002744896451271197
ssS'ne:[0.9,1.2]'
p265
(dp266
g7
F0.9991616606712341
sg8
F0.006207906690691224
sssS'pair:[40.0,50.0]'
p267
(dp268
S'ne:[2.1,2.4]'
p269
(dp270
g7
F0.999988853931427
sg8
F0.00015270757063813947
ssS'ne:[1.2,2.1]'
p271
(dp272
g7
F1.0002222061157227
sg8
F0.00013585277871929705
ssS'ne:[0.0,0.9]'
p273
(dp274
g7
F0.9971151947975159
sg8
F0.00012063603019105329
ssS'ne:[0.9,1.2]'
p275
(dp276
g7
F0.9990605115890503
sg8
F0.00016798848188594322
sssS'pair:[60.0,120.0]'
p277
(dp278
S'ne:[2.1,2.4]'
p279
(dp280
g7
F1.0003389120101929
sg8
F0.0007448003140944501
ssS'ne:[1.2,2.1]'
p281
(dp282
g7
F0.9991359114646912
sg8
F0.0003228532178341699
ssS'ne:[0.0,0.9]'
p283
(dp284
g7
F0.9980480670928955
sg8
F0.00030844597475022305
ssS'ne:[0.9,1.2]'
p285
(dp286
g7
F0.9992591738700867
sg8
F0.0005493793428887206
sssS'pair:[20.0,25.0]'
p287
(dp288
S'ne:[2.1,2.4]'
p289
(dp290
g7
F1.0005053281784058
sg8
F0.0017607150571804671
ssS'ne:[1.2,2.1]'
p291
(dp292
g7
F0.9984826445579529
sg8
F0.0011406893653536367
ssS'ne:[0.0,0.9]'
p293
(dp294
g7
F0.9899613857269287
sg8
F0.0014671938013144283
ssS'ne:[0.9,1.2]'
p295
(dp296
g7
F0.9954683184623718
sg8
F0.0023186376517567546
sssssS'TightISO_TightID_pt_eta'
p297
(dp298
S'pt_abseta_ratio'
p299
(dp300
S'pt:[25.0,30.0]'
p301
(dp302
S'abseta:[0.0,0.9]'
p303
(dp304
g7
F0.9937332272529602
sg8
F0.0011902674024150445
ssS'abseta:[1.2,2.1]'
p305
(dp306
g7
F0.9942231774330139
sg8
F0.0009946746722721026
ssS'abseta:[2.1,2.4]'
p307
(dp308
g7
F0.9859610795974731
sg8
F0.0017622481711921326
ssS'abseta:[0.9,1.2]'
p309
(dp310
g7
F1.001003623008728
sg8
F0.00205263242659085
sssS'pt:[30.0,40.0]'
p311
(dp312
S'abseta:[0.0,0.9]'
p313
(dp314
g7
F0.9940519332885742
sg8
F0.0003851311250005038
ssS'abseta:[1.2,2.1]'
p315
(dp316
g7
F0.9971336126327515
sg8
F0.000380624209849666
ssS'abseta:[2.1,2.4]'
p317
(dp318
g7
F0.9930834174156189
sg8
F0.0006874873791312294
ssS'abseta:[0.9,1.2]'
p319
(dp320
g7
F0.9992953538894653
sg8
F0.0006991084647753274
sssS'pt:[60.0,120.0]'
p321
(dp322
S'abseta:[0.0,0.9]'
p323
(dp324
g7
F0.9985480308532715
sg8
F0.0004633449445283297
ssS'abseta:[1.2,2.1]'
p325
(dp326
g7
F0.9990168213844299
sg8
F0.0004560010089753497
ssS'abseta:[2.1,2.4]'
p327
(dp328
g7
F1.0015169382095337
sg8
F0.0011264006813867366
ssS'abseta:[0.9,1.2]'
p329
(dp330
g7
F0.9992974400520325
sg8
F0.0007709965866323909
sssS'pt:[20.0,25.0]'
p331
(dp332
S'abseta:[0.0,0.9]'
p333
(dp334
g7
F0.9877232909202576
sg8
F0.002235665322681105
ssS'abseta:[1.2,2.1]'
p335
(dp336
g7
F0.9897167682647705
sg8
F0.0016839801015936652
ssS'abseta:[2.1,2.4]'
p337
(dp338
g7
F0.9753408432006836
sg8
F0.002944858579163776
ssS'abseta:[0.9,1.2]'
p339
(dp340
g7
F0.9931621551513672
sg8
F0.003569806148185735
sssS'pt:[40.0,50.0]'
p341
(dp342
S'abseta:[0.0,0.9]'
p343
(dp344
g7
F0.9953775405883789
sg8
F0.0002146377996403579
ssS'abseta:[1.2,2.1]'
p345
(dp346
g7
F0.9975305795669556
sg8
F0.00015930789045059558
ssS'abseta:[2.1,2.4]'
p347
(dp348
g7
F0.9967697858810425
sg8
F0.00043747260730560365
ssS'abseta:[0.9,1.2]'
p349
(dp350
g7
F0.9971793293952942
sg8
F5.331307599061037e-06
sssS'pt:[50.0,60.0]'
p351
(dp352
S'abseta:[0.0,0.9]'
p353
(dp354
g7
F0.9968781471252441
sg8
F0.00036260675005800807
ssS'abseta:[1.2,2.1]'
p355
(dp356
g7
F0.9979718923568726
sg8
F0.0003380956851739633
ssS'abseta:[2.1,2.4]'
p357
(dp358
g7
F0.9974563717842102
sg8
F0.0007658557438553233
ssS'abseta:[0.9,1.2]'
p359
(dp360
g7
F0.9993541240692139
sg8
F0.0005994180555699684
ssssS'abseta_pt_ratio'
p361
(dp362
S'abseta:[0.0,0.9]'
p363
(dp364
S'pt:[25.0,30.0]'
p365
(dp366
g7
F0.9937332272529602
sg8
F0.0011902674024150445
ssS'pt:[30.0,40.0]'
p367
(dp368
g7
F0.9940519332885742
sg8
F0.0003851311250005038
ssS'pt:[60.0,120.0]'
p369
(dp370
g7
F0.9985480308532715
sg8
F0.0004633449445283297
ssS'pt:[20.0,25.0]'
p371
(dp372
g7
F0.9877232909202576
sg8
F0.002235665322681105
ssS'pt:[40.0,50.0]'
p373
(dp374
g7
F0.9953775405883789
sg8
F0.0002146377996403579
ssS'pt:[50.0,60.0]'
p375
(dp376
g7
F0.9968781471252441
sg8
F0.00036260675005800807
sssS'abseta:[1.2,2.1]'
p377
(dp378
S'pt:[25.0,30.0]'
p379
(dp380
g7
F0.9942231774330139
sg8
F0.0009946746722721026
ssS'pt:[30.0,40.0]'
p381
(dp382
g7
F0.9971336126327515
sg8
F0.000380624209849666
ssS'pt:[60.0,120.0]'
p383
(dp384
g7
F0.9990168213844299
sg8
F0.0004560010089753497
ssS'pt:[20.0,25.0]'
p385
(dp386
g7
F0.9897167682647705
sg8
F0.0016839801015936652
ssS'pt:[40.0,50.0]'
p387
(dp388
g7
F0.9975305795669556
sg8
F0.00015930789045059558
ssS'pt:[50.0,60.0]'
p389
(dp390
g7
F0.9979718923568726
sg8
F0.0003380956851739633
sssS'abseta:[2.1,2.4]'
p391
(dp392
S'pt:[25.0,30.0]'
p393
(dp394
g7
F0.9859610795974731
sg8
F0.0017622481711921326
ssS'pt:[30.0,40.0]'
p395
(dp396
g7
F0.9930834174156189
sg8
F0.0006874873791312294
ssS'pt:[60.0,120.0]'
p397
(dp398
g7
F1.0015169382095337
sg8
F0.0011264006813867366
ssS'pt:[20.0,25.0]'
p399
(dp400
g7
F0.9753408432006836
sg8
F0.002944858579163776
ssS'pt:[40.0,50.0]'
p401
(dp402
g7
F0.9967697858810425
sg8
F0.00043747260730560365
ssS'pt:[50.0,60.0]'
p403
(dp404
g7
F0.9974563717842102
sg8
F0.0007658557438553233
sssS'abseta:[0.9,1.2]'
p405
(dp406
S'pt:[25.0,30.0]'
p407
(dp408
g7
F1.001003623008728
sg8
F0.00205263242659085
ssS'pt:[30.0,40.0]'
p409
(dp410
g7
F0.9992953538894653
sg8
F0.0006991084647753274
ssS'pt:[60.0,120.0]'
p411
(dp412
g7
F0.9992974400520325
sg8
F0.0007709965866323909
ssS'pt:[20.0,25.0]'
p413
(dp414
g7
F0.9931621551513672
sg8
F0.003569806148185735
ssS'pt:[40.0,50.0]'
p415
(dp416
g7
F0.9971793293952942
sg8
F5.331307599061037e-06
ssS'pt:[50.0,60.0]'
p417
(dp418
g7
F0.9993541240692139
sg8
F0.0005994180555699684
sssssS'LooseISO_MediumID_eta'
p419
(dp420
S'eta_ratio'
p421
(dp422
S'eta:[-0.2,0.2]'
p423
(dp424
g7
F0.9996239542961121
sg8
F0.00024101847654068353
ssS'eta:[-2.4,-2.1]'
p425
(dp426
g7
F0.9981489777565002
sg8
F0.0003568241598545695
ssS'eta:[0.3,0.9]'
p427
(dp428
g7
F1.0004613399505615
sg8
F0.00019199798759747451
ssS'eta:[-0.9,-0.3]'
p429
(dp430
g7
F1.0000863075256348
sg8
F0.00019499803720589192
ssS'eta:[0.2,0.3]'
p431
(dp432
g7
F0.9997742772102356
sg8
F0.0004954005234575171
ssS'eta:[0.9,1.2]'
p433
(dp434
g7
F1.0004675388336182
sg8
F0.00028422680297429247
ssS'eta:[-1.2,-0.9]'
p435
(dp436
g7
F0.9993738532066345
sg8
F0.00028233952538623847
ssS'eta:[2.1,2.4]'
p437
(dp438
g7
F0.9983736872673035
sg8
F0.0003474745453318894
ssS'eta:[-1.6,-1.2]'
p439
(dp440
g7
F0.9996418952941895
sg8
F0.0002418581081365889
ssS'eta:[1.2,1.6]'
p441
(dp442
g7
F0.9998201727867126
sg8
F0.00023517994644896845
ssS'eta:[-2.1,-1.6]'
p443
(dp444
g7
F0.9993453025817871
sg8
F0.00022358147767830646
ssS'eta:[-0.3,-0.2]'
p445
(dp446
g7
F0.9995876550674438
sg8
F0.0004874938119591403
ssS'eta:[1.6,2.1]'
p447
(dp448
g7
F0.9994116425514221
sg8
F0.00021936161267842427
ssssS'LooseISO_MediumID_pt'
p449
(dp450
S'pt_ratio'
p451
(dp452
S'pt:[25.0,30.0]'
p453
(dp454
g7
F1.0001565217971802
sg8
F0.00045208934671922644
ssS'pt:[30.0,40.0]'
p455
(dp456
g7
F0.9996957182884216
sg8
F0.0001470173785015599
ssS'pt:[60.0,120.0]'
p457
(dp458
g7
F0.9996672868728638
sg8
F0.00017279051741433342
ssS'pt:[120.0,200.0]'
p459
(dp460
g7
F1.0009632110595703
sg8
F0.0011677211998747353
ssS'pt:[20.0,25.0]'
p461
(dp462
g7
F0.9977663159370422
sg8
F0.000813214110038549
ssS'pt:[40.0,50.0]'
p463
(dp464
g7
F0.999075710773468
sg8
F6.359651917198868e-05
ssS'pt:[50.0,60.0]'
p465
(dp466
g7
F0.9994766712188721
sg8
F0.00011625603473235178
ssssS'LooseISO_LooseID_pt_eta'
p467
(dp468
S'pt_abseta_ratio'
p469
(dp470
S'pt:[25.0,30.0]'
p471
(dp472
S'abseta:[0.0,0.9]'
p473
(dp474
g7
F0.99834805727005
sg8
F0.0007791145952332396
ssS'abseta:[1.2,2.1]'
p475
(dp476
g7
F1.0007054805755615
sg8
F0.0006667028834492813
ssS'abseta:[2.1,2.4]'
p477
(dp478
g7
F0.9990437030792236
sg8
F0.0010860012222701353
ssS'abseta:[0.9,1.2]'
p479
(dp480
g7
F1.000577449798584
sg8
F0.0013428799029172077
sssS'pt:[30.0,40.0]'
p481
(dp482
S'abseta:[0.0,0.9]'
p483
(dp484
g7
F0.9990124106407166
sg8
F0.00022928046770918648
ssS'abseta:[1.2,2.1]'
p485
(dp486
g7
F1.0006344318389893
sg8
F0.00023774865269030195
ssS'abseta:[2.1,2.4]'
p487
(dp488
g7
F0.9992378354072571
sg8
F0.0004123259783096002
ssS'abseta:[0.9,1.2]'
p489
(dp490
g7
F1.0002254247665405
sg8
F0.00042884858076353547
sssS'pt:[60.0,120.0]'
p491
(dp492
S'abseta:[0.0,0.9]'
p493
(dp494
g7
F0.9998149275779724
sg8
F0.0002717946437577071
ssS'abseta:[1.2,2.1]'
p495
(dp496
g7
F0.9994309544563293
sg8
F0.000288010899718244
ssS'abseta:[2.1,2.4]'
p497
(dp498
g7
F0.9999502301216125
sg8
F0.000718065197014161
ssS'abseta:[0.9,1.2]'
p499
(dp500
g7
F1.0001126527786255
sg8
F0.00047689507399091324
sssS'pt:[20.0,25.0]'
p501
(dp502
S'abseta:[0.0,0.9]'
p503
(dp504
g7
F0.9948092699050903
sg8
F0.0015548924139755695
ssS'abseta:[1.2,2.1]'
p505
(dp506
g7
F0.9989667534828186
sg8
F0.0010944567186782364
ssS'abseta:[2.1,2.4]'
p507
(dp508
g7
F0.9933048486709595
sg8
F0.0018879319245298746
ssS'abseta:[0.9,1.2]'
p509
(dp510
g7
F0.9963571429252625
sg8
F0.0024153751548630902
sssS'pt:[40.0,50.0]'
p511
(dp512
S'abseta:[0.0,0.9]'
p513
(dp514
g7
F0.9989691972732544
sg8
F5.864900302221479e-05
ssS'abseta:[1.2,2.1]'
p515
(dp516
g7
F0.9994879364967346
sg8
F5.015129665975607e-06
ssS'abseta:[2.1,2.4]'
p517
(dp518
g7
F0.9996326565742493
sg8
F0.0002222160169547585
ssS'abseta:[0.9,1.2]'
p519
(dp520
g7
F0.9990395903587341
sg8
F0.00017448881951954303
sssS'pt:[50.0,60.0]'
p521
(dp522
S'abseta:[0.0,0.9]'
p523
(dp524
g7
F0.9994224905967712
sg8
F0.00018516032478332618
ssS'abseta:[1.2,2.1]'
p525
(dp526
g7
F0.9994584321975708
sg8
F0.0001887338430449278
ssS'abseta:[2.1,2.4]'
p527
(dp528
g7
F0.9992160201072693
sg8
F0.000426015755184956
ssS'abseta:[0.9,1.2]'
p529
(dp530
g7
F1.0001147985458374
sg8
F0.0003237598343984535
ssssS'abseta_pt_ratio'
p531
(dp532
S'abseta:[0.0,0.9]'
p533
(dp534
S'pt:[25.0,30.0]'
p535
(dp536
g7
F0.99834805727005
sg8
F0.0007791145952332396
ssS'pt:[30.0,40.0]'
p537
(dp538
g7
F0.9990124106407166
sg8
F0.00022928046770918648
ssS'pt:[60.0,120.0]'
p539
(dp540
g7
F0.9998149275779724
sg8
F0.0002717946437577071
ssS'pt:[20.0,25.0]'
p541
(dp542
g7
F0.9948092699050903
sg8
F0.0015548924139755695
ssS'pt:[40.0,50.0]'
p543
(dp544
g7
F0.9989691972732544
sg8
F5.864900302221479e-05
ssS'pt:[50.0,60.0]'
p545
(dp546
g7
F0.9994224905967712
sg8
F0.00018516032478332618
sssS'abseta:[1.2,2.1]'
p547
(dp548
S'pt:[25.0,30.0]'
p549
(dp550
g7
F1.0007054805755615
sg8
F0.0006667028834492813
ssS'pt:[30.0,40.0]'
p551
(dp552
g7
F1.0006344318389893
sg8
F0.00023774865269030195
ssS'pt:[60.0,120.0]'
p553
(dp554
g7
F0.9994309544563293
sg8
F0.000288010899718244
ssS'pt:[20.0,25.0]'
p555
(dp556
g7
F0.9989667534828186
sg8
F0.0010944567186782364
ssS'pt:[40.0,50.0]'
p557
(dp558
g7
F0.9994879364967346
sg8
F5.015129665975607e-06
ssS'pt:[50.0,60.0]'
p559
(dp560
g7
F0.9994584321975708
sg8
F0.0001887338430449278
sssS'abseta:[2.1,2.4]'
p561
(dp562
S'pt:[25.0,30.0]'
p563
(dp564
g7
F0.9990437030792236
sg8
F0.0010860012222701353
ssS'pt:[30.0,40.0]'
p565
(dp566
g7
F0.9992378354072571
sg8
F0.0004123259783096002
ssS'pt:[60.0,120.0]'
p567
(dp568
g7
F0.9999502301216125
sg8
F0.000718065197014161
ssS'pt:[20.0,25.0]'
p569
(dp570
g7
F0.9933048486709595
sg8
F0.0018879319245298746
ssS'pt:[40.0,50.0]'
p571
(dp572
g7
F0.9996326565742493
sg8
F0.0002222160169547585
ssS'pt:[50.0,60.0]'
p573
(dp574
g7
F0.9992160201072693
sg8
F0.000426015755184956
sssS'abseta:[0.9,1.2]'
p575
(dp576
S'pt:[25.0,30.0]'
p577
(dp578
g7
F1.000577449798584
sg8
F0.0013428799029172077
ssS'pt:[30.0,40.0]'
p579
(dp580
g7
F1.0002254247665405
sg8
F0.00042884858076353547
ssS'pt:[60.0,120.0]'
p581
(dp582
g7
F1.0001126527786255
sg8
F0.00047689507399091324
ssS'pt:[20.0,25.0]'
p583
(dp584
g7
F0.9963571429252625
sg8
F0.0024153751548630902
ssS'pt:[40.0,50.0]'
p585
(dp586
g7
F0.9990395903587341
sg8
F0.00017448881951954303
ssS'pt:[50.0,60.0]'
p587
(dp588
g7
F1.0001147985458374
sg8
F0.0003237598343984535
sssssS'TightISO_MediumID_eta'
p589
(dp590
S'eta_ratio'
p591
(dp592
S'eta:[-0.2,0.2]'
p593
(dp594
g7
F0.9955589175224304
sg8
F0.00040301378902566064
ssS'eta:[-2.4,-2.1]'
p595
(dp596
g7
F0.9913499355316162
sg8
F0.0005811455222642803
ssS'eta:[0.3,0.9]'
p597
(dp598
g7
F0.99867844581604
sg8
F0.00032253638152567146
ssS'eta:[-0.9,-0.3]'
p599
(dp600
g7
F0.9964407682418823
sg8
F0.0003264264647520859
ssS'eta:[0.2,0.3]'
p601
(dp602
g7
F0.9964669346809387
sg8
F0.005492628267031033
ssS'eta:[0.9,1.2]'
p603
(dp604
g7
F0.9996356964111328
sg8
F0.00046821568986628054
ssS'eta:[-1.2,-0.9]'
p605
(dp606
g7
F0.9972932934761047
sg8
F0.00046765666739196265
ssS'eta:[2.1,2.4]'
p607
(dp608
g7
F0.9903164505958557
sg8
F0.0005707454553949979
ssS'eta:[-1.6,-1.2]'
p609
(dp610
g7
F0.9969249963760376
sg8
F0.0003952450093030497
ssS'eta:[1.2,1.6]'
p611
(dp612
g7
F0.9967045783996582
sg8
F0.00039087541534454245
ssS'eta:[-2.1,-1.6]'
p613
(dp614
g7
F0.9946417212486267
sg8
F0.0003648308229685151
ssS'eta:[-0.3,-0.2]'
p615
(dp616
g7
F0.9959550499916077
sg8
F0.0008215053509116549
ssS'eta:[1.6,2.1]'
p617
(dp618
g7
F0.9943665266036987
sg8
F0.00036119586018687385
ssssS'LooseISO_MediumID_pt_eta'
p619
(dp620
S'pt_abseta_ratio'
p621
(dp622
S'pt:[25.0,30.0]'
p623
(dp624
S'abseta:[0.0,0.9]'
p625
(dp626
g7
F0.998469889163971
sg8
F0.0007806070320495675
ssS'abseta:[1.2,2.1]'
p627
(dp628
g7
F1.0006271600723267
sg8
F0.0006695208271392741
ssS'abseta:[2.1,2.4]'
p629
(dp630
g7
F0.999072790145874
sg8
F0.0010969589532585594
ssS'abseta:[0.9,1.2]'
p631
(dp632
g7
F1.0005327463150024
sg8
F0.0013396029851908459
sssS'pt:[30.0,40.0]'
p633
(dp634
S'abseta:[0.0,0.9]'
p635
(dp636
g7
F0.9990193247795105
sg8
F0.00022881787419579637
ssS'abseta:[1.2,2.1]'
p637
(dp638
g7
F1.0006532669067383
sg8
F0.00023700236544869045
ssS'abseta:[2.1,2.4]'
p639
(dp640
g7
F0.9991438388824463
sg8
F0.00041153706815408054
ssS'abseta:[0.9,1.2]'
p641
(dp642
g7
F1.000287652015686
sg8
F0.00042655596256570494
sssS'pt:[60.0,120.0]'
p643
(dp644
S'abseta:[0.0,0.9]'
p645
(dp646
g7
F0.9998018741607666
sg8
F0.0002672226174920786
ssS'abseta:[1.2,2.1]'
p647
(dp648
g7
F0.9994216561317444
sg8
F0.0002808017631543193
ssS'abseta:[2.1,2.4]'
p649
(dp650
g7
F0.9998756051063538
sg8
F0.0007299304059491562
ssS'abseta:[0.9,1.2]'
p651
(dp652
g7
F1.0000207424163818
sg8
F0.0004611042335641013
sssS'pt:[20.0,25.0]'
p653
(dp654
S'abseta:[0.0,0.9]'
p655
(dp656
g7
F0.9947723746299744
sg8
F0.0015517589837088165
ssS'abseta:[1.2,2.1]'
p657
(dp658
g7
F0.9988225698471069
sg8
F0.001096544051610233
ssS'abseta:[2.1,2.4]'
p659
(dp660
g7
F0.9924932718276978
sg8
F0.0019186323750510924
ssS'abseta:[0.9,1.2]'
p661
(dp662
g7
F0.9958833456039429
sg8
F0.002424341026492711
sssS'pt:[40.0,50.0]'
p663
(dp664
S'abseta:[0.0,0.9]'
p665
(dp666
g7
F0.9989325404167175
sg8
F0.0001026537912988493
ssS'abseta:[1.2,2.1]'
p667
(dp668
g7
F0.9995272755622864
sg8
F1.8725208109021673e-06
ssS'abseta:[2.1,2.4]'
p669
(dp670
g7
F0.9996941685676575
sg8
F0.0033637104211318263
ssS'abseta:[0.9,1.2]'
p671
(dp672
g7
F0.9990101456642151
sg8
F0.005371899967931358
sssS'pt:[50.0,60.0]'
p673
(dp674
S'abseta:[0.0,0.9]'
p675
(dp676
g7
F0.9994831085205078
sg8
F0.0001824241792956338
ssS'abseta:[1.2,2.1]'
p677
(dp678
g7
F0.9994733333587646
sg8
F0.00018393806518285914
ssS'abseta:[2.1,2.4]'
p679
(dp680
g7
F0.9991376996040344
sg8
F0.00042167049062879515
ssS'abseta:[0.9,1.2]'
p681
(dp682
g7
F0.9999847412109375
sg8
F0.00031496313115630714
ssssS'abseta_pt_ratio'
p683
(dp684
S'abseta:[0.0,0.9]'
p685
(dp686
S'pt:[25.0,30.0]'
p687
(dp688
g7
F0.998469889163971
sg8
F0.0007806070320495675
ssS'pt:[30.0,40.0]'
p689
(dp690
g7
F0.9990193247795105
sg8
F0.00022881787419579637
ssS'pt:[60.0,120.0]'
p691
(dp692
g7
F0.9998018741607666
sg8
F0.0002672226174920786
ssS'pt:[20.0,25.0]'
p693
(dp694
g7
F0.9947723746299744
sg8
F0.0015517589837088165
ssS'pt:[40.0,50.0]'
p695
(dp696
g7
F0.9989325404167175
sg8
F0.0001026537912988493
ssS'pt:[50.0,60.0]'
p697
(dp698
g7
F0.9994831085205078
sg8
F0.0001824241792956338
sssS'abseta:[1.2,2.1]'
p699
(dp700
S'pt:[25.0,30.0]'
p701
(dp702
g7
F1.0006271600723267
sg8
F0.0006695208271392741
ssS'pt:[30.0,40.0]'
p703
(dp704
g7
F1.0006532669067383
sg8
F0.00023700236544869045
ssS'pt:[60.0,120.0]'
p705
(dp706
g7
F0.9994216561317444
sg8
F0.0002808017631543193
ssS'pt:[20.0,25.0]'
p707
(dp708
g7
F0.9988225698471069
sg8
F0.001096544051610233
ssS'pt:[40.0,50.0]'
p709
(dp710
g7
F0.9995272755622864
sg8
F1.8725208109021673e-06
ssS'pt:[50.0,60.0]'
p711
(dp712
g7
F0.9994733333587646
sg8
F0.00018393806518285914
sssS'abseta:[2.1,2.4]'
p713
(dp714
S'pt:[25.0,30.0]'
p715
(dp716
g7
F0.999072790145874
sg8
F0.0010969589532585594
ssS'pt:[30.0,40.0]'
p717
(dp718
g7
F0.9991438388824463
sg8
F0.00041153706815408054
ssS'pt:[60.0,120.0]'
p719
(dp720
g7
F0.9998756051063538
sg8
F0.0007299304059491562
ssS'pt:[20.0,25.0]'
p721
(dp722
g7
F0.9924932718276978
sg8
F0.0019186323750510924
ssS'pt:[40.0,50.0]'
p723
(dp724
g7
F0.9996941685676575
sg8
F0.0033637104211318263
ssS'pt:[50.0,60.0]'
p725
(dp726
g7
F0.9991376996040344
sg8
F0.00042167049062879515
sssS'abseta:[0.9,1.2]'
p727
(dp728
S'pt:[25.0,30.0]'
p729
(dp730
g7
F1.0005327463150024
sg8
F0.0013396029851908459
ssS'pt:[30.0,40.0]'
p731
(dp732
g7
F1.000287652015686
sg8
F0.00042655596256570494
ssS'pt:[60.0,120.0]'
p733
(dp734
g7
F1.0000207424163818
sg8
F0.0004611042335641013
ssS'pt:[20.0,25.0]'
p735
(dp736
g7
F0.9958833456039429
sg8
F0.002424341026492711
ssS'pt:[40.0,50.0]'
p737
(dp738
g7
F0.9990101456642151
sg8
F0.005371899967931358
ssS'pt:[50.0,60.0]'
p739
(dp740
g7
F0.9999847412109375
sg8
F0.00031496313115630714
sssssS'TightISO_MediumID_pt_eta'
p741
(dp742
S'pt_abseta_ratio'
p743
(dp744
S'pt:[25.0,30.0]'
p745
(dp746
S'abseta:[0.0,0.9]'
p747
(dp748
g7
F0.9934128522872925
sg8
F0.001173719753302117
ssS'abseta:[1.2,2.1]'
p749
(dp750
g7
F0.9941663146018982
sg8
F0.0009908551388070426
ssS'abseta:[2.1,2.4]'
p751
(dp752
g7
F0.9858221411705017
sg8
F0.001763159393674226
ssS'abseta:[0.9,1.2]'
p753
(dp754
g7
F1.0005018711090088
sg8
F0.0020327150272958397
sssS'pt:[30.0,40.0]'
p755
(dp756
S'abseta:[0.0,0.9]'
p757
(dp758
g7
F0.9938548803329468
sg8
F0.0003804453855636256
ssS'abseta:[1.2,2.1]'
p759
(dp760
g7
F0.9970574378967285
sg8
F0.0003793277829069728
ssS'abseta:[2.1,2.4]'
p761
(dp762
g7
F0.9924782514572144
sg8
F0.0006878732681851406
ssS'abseta:[0.9,1.2]'
p763
(dp764
g7
F0.9988994002342224
sg8
F0.000692221428827388
sssS'pt:[60.0,120.0]'
p765
(dp766
S'abseta:[0.0,0.9]'
p767
(dp768
g7
F0.9984052181243896
sg8
F0.0004599388481460921
ssS'abseta:[1.2,2.1]'
p769
(dp770
g7
F0.999056339263916
sg8
F0.00045571424544005724
ssS'abseta:[2.1,2.4]'
p771
(dp772
g7
F1.0011845827102661
sg8
F0.0011360423061439865
ssS'abseta:[0.9,1.2]'
p773
(dp774
g7
F0.9990310668945312
sg8
F0.0007684108126541856
sssS'pt:[20.0,25.0]'
p775
(dp776
S'abseta:[0.0,0.9]'
p777
(dp778
g7
F0.9882721900939941
sg8
F0.002206220413662288
ssS'abseta:[1.2,2.1]'
p779
(dp780
g7
F0.9898614883422852
sg8
F0.0016742517225923567
ssS'abseta:[2.1,2.4]'
p781
(dp782
g7
F0.975086510181427
sg8
F0.002934935804248842
ssS'abseta:[0.9,1.2]'
p783
(dp784
g7
F0.9924538135528564
sg8
F0.003515462732317882
sssS'pt:[40.0,50.0]'
p785
(dp786
S'abseta:[0.0,0.9]'
p787
(dp788
g7
F0.9952378869056702
sg8
F0.00021308751337644302
ssS'abseta:[1.2,2.1]'
p789
(dp790
g7
F0.9974465370178223
sg8
F0.00020174627604101287
ssS'abseta:[2.1,2.4]'
p791
(dp792
g7
F0.9964536428451538
sg8
F0.0003388112472695933
ssS'abseta:[0.9,1.2]'
p793
(dp794
g7
F0.99683678150177
sg8
F0.023932611839648527
sssS'pt:[50.0,60.0]'
p795
(dp796
S'abseta:[0.0,0.9]'
p797
(dp798
g7
F0.9966639876365662
sg8
F0.00035826704177923296
ssS'abseta:[1.2,2.1]'
p799
(dp800
g7
F0.9979007840156555
sg8
F0.0003360028221409355
ssS'abseta:[2.1,2.4]'
p801
(dp802
g7
F0.9972025752067566
sg8
F0.0007646105267411076
ssS'abseta:[0.9,1.2]'
p803
(dp804
g7
F0.9991453289985657
sg8
F0.0005975279005110016
ssssS'abseta_pt_ratio'
p805
(dp806
S'abseta:[0.0,0.9]'
p807
(dp808
S'pt:[25.0,30.0]'
p809
(dp810
g7
F0.9934128522872925
sg8
F0.001173719753302117
ssS'pt:[30.0,40.0]'
p811
(dp812
g7
F0.9938548803329468
sg8
F0.0003804453855636256
ssS'pt:[60.0,120.0]'
p813
(dp814
g7
F0.9984052181243896
sg8
F0.0004599388481460921
ssS'pt:[20.0,25.0]'
p815
(dp816
g7
F0.9882721900939941
sg8
F0.002206220413662288
ssS'pt:[40.0,50.0]'
p817
(dp818
g7
F0.9952378869056702
sg8
F0.00021308751337644302
ssS'pt:[50.0,60.0]'
p819
(dp820
g7
F0.9966639876365662
sg8
F0.00035826704177923296
sssS'abseta:[1.2,2.1]'
p821
(dp822
S'pt:[25.0,30.0]'
p823
(dp824
g7
F0.9941663146018982
sg8
F0.0009908551388070426
ssS'pt:[30.0,40.0]'
p825
(dp826
g7
F0.9970574378967285
sg8
F0.0003793277829069728
ssS'pt:[60.0,120.0]'
p827
(dp828
g7
F0.999056339263916
sg8
F0.00045571424544005724
ssS'pt:[20.0,25.0]'
p829
(dp830
g7
F0.9898614883422852
sg8
F0.0016742517225923567
ssS'pt:[40.0,50.0]'
p831
(dp832
g7
F0.9974465370178223
sg8
F0.00020174627604101287
ssS'pt:[50.0,60.0]'
p833
(dp834
g7
F0.9979007840156555
sg8
F0.0003360028221409355
sssS'abseta:[2.1,2.4]'
p835
(dp836
S'pt:[25.0,30.0]'
p837
(dp838
g7
F0.9858221411705017
sg8
F0.001763159393674226
ssS'pt:[30.0,40.0]'
p839
(dp840
g7
F0.9924782514572144
sg8
F0.0006878732681851406
ssS'pt:[60.0,120.0]'
p841
(dp842
g7
F1.0011845827102661
sg8
F0.0011360423061439865
ssS'pt:[20.0,25.0]'
p843
(dp844
g7
F0.975086510181427
sg8
F0.002934935804248842
ssS'pt:[40.0,50.0]'
p845
(dp846
g7
F0.9964536428451538
sg8
F0.0003388112472695933
ssS'pt:[50.0,60.0]'
p847
(dp848
g7
F0.9972025752067566
sg8
F0.0007646105267411076
sssS'abseta:[0.9,1.2]'
p849
(dp850
S'pt:[25.0,30.0]'
p851
(dp852
g7
F1.0005018711090088
sg8
F0.0020327150272958397
ssS'pt:[30.0,40.0]'
p853
(dp854
g7
F0.9988994002342224
sg8
F0.000692221428827388
ssS'pt:[60.0,120.0]'
p855
(dp856
g7
F0.9990310668945312
sg8
F0.0007684108126541856
ssS'pt:[20.0,25.0]'
p857
(dp858
g7
F0.9924538135528564
sg8
F0.003515462732317882
ssS'pt:[40.0,50.0]'
p859
(dp860
g7
F0.99683678150177
sg8
F0.023932611839648527
ssS'pt:[50.0,60.0]'
p861
(dp862
g7
F0.9991453289985657
sg8
F0.0005975279005110016
sssssS'LooseISO_MediumID_vtx'
p863
(dp864
S'tag_nVertices_ratio'
p865
(dp866
S'tag:[30.5,32.5]'
p867
(dp868
g7
F0.9992786645889282
sg8
F0.0011295471156877394
ssS'tag:[46.5,48.5]'
p869
(dp870
g7
F0.996370255947113
sg8
F0.014340932248636026
ssS'tag:[28.5,30.5]'
p871
(dp872
g7
F0.9979196786880493
sg8
F0.0008098281107338295
ssS'tag:[44.5,46.5]'
p873
(dp874
g7
F0.9933008551597595
sg8
F0.015338786013006327
ssS'tag:[6.5,8.5]'
p875
(dp876
g7
F0.9995297193527222
sg8
F0.0003767388037523778
ssS'tag:[14.5,16.5]'
p877
(dp878
g7
F0.9996542930603027
sg8
F0.00019447684286839944
ssS'tag:[50.5,52.5]'
p879
(dp880
g7
F1.0129262208938599
sg8
F0.04966876986051143
ssS'tag:[24.5,26.5]'
p881
(dp882
g7
F0.9990220069885254
sg8
F0.0004412424824072665
ssS'tag:[34.5,36.5]'
p883
(dp884
g7
F0.9964077472686768
sg8
F0.001921609206844176
ssS'tag:[8.5,10.5]'
p885
(dp886
g7
F0.999912440776825
sg8
F0.0002672740167022896
ssS'tag:[18.5,20.5]'
p887
(dp888
g7
F0.9991499185562134
sg8
F0.0002356481933236347
ssS'tag:[16.5,18.5]'
p889
(dp890
g7
F0.9996170997619629
sg8
F0.00020872001274581294
ssS'tag:[32.5,34.5]'
p891
(dp892
g7
F0.9963414669036865
sg8
F0.001655569001980019
ssS'tag:[48.5,50.5]'
p893
(dp894
g7
F0.9897758364677429
sg8
F0.020505895457651715
ssS'tag:[22.5,24.5]'
p895
(dp896
g7
F0.9989672899246216
sg8
F0.00034101837717597704
ssS'tag:[52.5,54.5]'
p897
(dp898
g7
F0.9616255164146423
sg8
F0.059174873555133796
ssS'tag:[42.5,44.5]'
p899
(dp900
g7
F0.9959728717803955
sg8
F0.007942396361508817
ssS'tag:[38.5,40.5]'
p901
(dp902
g7
F0.9984074831008911
sg8
F0.004409263808563013
ssS'tag:[2.5,4.5]'
p903
(dp904
g7
F0.9991614818572998
sg8
F0.0017825959094158216
ssS'tag:[12.5,14.5]'
p905
(dp906
g7
F0.9996588826179504
sg8
F0.00019903079721254177
ssS'tag:[0.5,2.5]'
p907
(dp908
g7
F1.0003310441970825
sg8
F0.0038804609831369088
ssS'tag:[40.5,42.5]'
p909
(dp910
g7
F0.990506112575531
sg8
F0.006847582346027136
ssS'tag:[20.5,22.5]'
p911
(dp912
g7
F0.9993143677711487
sg8
F0.0002774736184741953
ssS'tag:[10.5,12.5]'
p913
(dp914
g7
F0.999879002571106
sg8
F0.0002200718108093754
ssS'tag:[26.5,28.5]'
p915
(dp916
g7
F0.9989501237869263
sg8
F0.0005853190649504344
ssS'tag:[36.5,38.5]'
p917
(dp918
g7
F0.9980531334877014
sg8
F0.0028758802427528
ssS'tag:[4.5,6.5]'
p919
(dp920
g7
F0.9994798898696899
sg8
F0.0006183637032881528
ssssS'tkLooseISO_highptID_eta'
p921
(dp922
S'eta_ratio'
p923
(dp924
S'eta:[-0.2,0.2]'
p925
(dp926
g7
F0.997347891330719
sg8
F0.0002371318946072396
ssS'eta:[-2.4,-2.1]'
p927
(dp928
g7
F0.9990442395210266
sg8
F0.00034860395345668585
ssS'eta:[0.3,0.9]'
p929
(dp930
g7
F0.997080385684967
sg8
F0.0002009434921147401
ssS'eta:[-0.9,-0.3]'
p931
(dp932
g7
F0.9972914457321167
sg8
F0.00020184429026627108
ssS'eta:[0.2,0.3]'
p933
(dp934
g7
F0.9965788125991821
sg8
F0.000516565610484475
ssS'eta:[0.9,1.2]'
p935
(dp936
g7
F0.9994750618934631
sg8
F0.0003019479738476497
ssS'eta:[-1.2,-0.9]'
p937
(dp938
g7
F0.9990186095237732
sg8
F0.00029707094079327686
ssS'eta:[2.1,2.4]'
p939
(dp940
g7
F1.000301718711853
sg8
F0.0003508406626331151
ssS'eta:[-1.6,-1.2]'
p941
(dp942
g7
F0.9998531341552734
sg8
F0.0002636732538264531
ssS'eta:[1.2,1.6]'
p943
(dp944
g7
F0.9994315505027771
sg8
F0.0002618810463764169
ssS'eta:[-2.1,-1.6]'
p945
(dp946
g7
F0.9996689558029175
sg8
F0.00025339982542434017
ssS'eta:[-0.3,-0.2]'
p947
(dp948
g7
F0.9967043995857239
sg8
F0.0005046379370732555
ssS'eta:[1.6,2.1]'
p949
(dp950
g7
F0.999982476234436
sg8
F0.00025285414231219475
ssssS'tkLooseISO_highptID_vtx'
p951
(dp952
S'tag_nVertices_ratio'
p953
(dp954
S'tag:[30.5,32.5]'
p955
(dp956
g7
F0.9930635690689087
sg8
F0.001400920471278342
ssS'tag:[46.5,48.5]'
p957
(dp958
g7
F1.0101993083953857
sg8
F0.012353173228686055
ssS'tag:[28.5,30.5]'
p959
(dp960
g7
F0.992060124874115
sg8
F0.0009324226449492086
ssS'tag:[44.5,46.5]'
p961
(dp962
g7
F0.9734241962432861
sg8
F0.01936866993589982
ssS'tag:[6.5,8.5]'
p963
(dp964
g7
F0.9990634918212891
sg8
F0.00038645465745942614
ssS'tag:[14.5,16.5]'
p965
(dp966
g7
F0.9981191754341125
sg8
F0.0002037087850954367
ssS'tag:[50.5,52.5]'
p967
(dp968
g7
F0.9772915244102478
sg8
F0.05095892126998723
ssS'tag:[24.5,26.5]'
p969
(dp970
g7
F0.9959868788719177
sg8
F0.0004895941023806184
ssS'tag:[34.5,36.5]'
p971
(dp972
g7
F0.9924671053886414
sg8
F0.002819518263118924
ssS'tag:[8.5,10.5]'
p973
(dp974
g7
F0.9992706775665283
sg8
F0.0002795735765456451
ssS'tag:[18.5,20.5]'
p975
(dp976
g7
F0.9974176287651062
sg8
F0.0002499452171734497
ssS'tag:[16.5,18.5]'
p977
(dp978
g7
F0.997922956943512
sg8
F0.0002200156717141763
ssS'tag:[32.5,34.5]'
p979
(dp980
g7
F0.9955140352249146
sg8
F0.001805481284834533
ssS'tag:[48.5,50.5]'
p981
(dp982
g7
F0.9883980751037598
sg8
F0.031913302228034186
ssS'tag:[22.5,24.5]'
p983
(dp984
g7
F0.9964658617973328
sg8
F0.00037186380530154805
ssS'tag:[52.5,54.5]'
p985
(dp986
g7
F1.0048373937606812
sg8
F0.10954676530733812
ssS'tag:[42.5,44.5]'
p987
(dp988
g7
F0.9746684432029724
sg8
F0.012781879519777845
ssS'tag:[38.5,40.5]'
p989
(dp990
g7
F0.9898498058319092
sg8
F0.006028004776986842
ssS'tag:[2.5,4.5]'
p991
(dp992
g7
F0.9997589588165283
sg8
F0.0014759948715685927
ssS'tag:[12.5,14.5]'
p993
(dp994
g7
F0.9984997510910034
sg8
F0.0002086836698389641
ssS'tag:[0.5,2.5]'
p995
(dp996
g7
F0.999016523361206
sg8
F0.003849219243966503
ssS'tag:[40.5,42.5]'
p997
(dp998
g7
F0.9753454327583313
sg8
F0.008769993616621695
ssS'tag:[20.5,22.5]'
p999
(dp1000
g7
F0.9970967769622803
sg8
F0.00029607785642445474
ssS'tag:[10.5,12.5]'
p1001
(dp1002
g7
F0.999034583568573
sg8
F0.00022810990876799648
ssS'tag:[26.5,28.5]'
p1003
(dp1004
g7
F0.9945703744888306
sg8
F0.0006550935693205118
ssS'tag:[36.5,38.5]'
p1005
(dp1006
g7
F0.9981334209442139
sg8
F0.0036694944742810725
ssS'tag:[4.5,6.5]'
p1007
(dp1008
g7
F0.9988974928855896
sg8
F0.0006364605918243349
ssssS'TightISO_TightID_pt'
p1009
(dp1010
S'pt_ratio'
p1011
(dp1012
S'pt:[25.0,30.0]'
p1013
(dp1014
g7
F0.9956417083740234
sg8
F0.0006825528912887594
ssS'pt:[30.0,40.0]'
p1015
(dp1016
g7
F0.9957043528556824
sg8
F0.00024293686783178736
ssS'pt:[60.0,120.0]'
p1017
(dp1018
g7
F0.9987287521362305
sg8
F0.00029493664795317097
ssS'pt:[120.0,200.0]'
p1019
(dp1020
g7
F1.0017293691635132
sg8
F0.001778322113203073
ssS'pt:[20.0,25.0]'
p1021
(dp1022
g7
F0.9902971386909485
sg8
F0.0011855002091000475
ssS'pt:[40.0,50.0]'
p1023
(dp1024
g7
F0.9960147738456726
sg8
F4.990972981539005e-06
ssS'pt:[50.0,60.0]'
p1025
(dp1026
g7
F0.9972985982894897
sg8
F0.00022515773839997474
ssssS'TightISO_MediumID_pt'
p1027
(dp1028
S'pt_ratio'
p1029
(dp1030
S'pt:[25.0,30.0]'
p1031
(dp1032
g7
F0.9953311085700989
sg8
F0.0006757423447090498
ssS'pt:[30.0,40.0]'
p1033
(dp1034
g7
F0.9954550862312317
sg8
F0.00024070010068283636
ssS'pt:[60.0,120.0]'
p1035
(dp1036
g7
F0.998613715171814
sg8
F0.00029380945506093275
ssS'pt:[120.0,200.0]'
p1037
(dp1038
g7
F1.0023081302642822
sg8
F0.001814348903098867
ssS'pt:[20.0,25.0]'
p1039
(dp1040
g7
F0.9903466701507568
sg8
F0.0011743898339377765
ssS'pt:[40.0,50.0]'
p1041
(dp1042
g7
F0.99583500623703
sg8
F0.00010942972187624404
ssS'pt:[50.0,60.0]'
p1043
(dp1044
g7
F0.9971135258674622
sg8
F0.00022408900136031972
ssssS'LooseISO_TightID_pt_eta'
p1045
(dp1046
S'pt_abseta_ratio'
p1047
(dp1048
S'pt:[25.0,30.0]'
p1049
(dp1050
S'abseta:[0.0,0.9]'
p1051
(dp1052
g7
F0.9984727501869202
sg8
F0.0007892962637514733
ssS'abseta:[1.2,2.1]'
p1053
(dp1054
g7
F1.0006983280181885
sg8
F0.0006713053191091243
ssS'abseta:[2.1,2.4]'
p1055
(dp1056
g7
F0.9986113905906677
sg8
F0.0011025257619516145
ssS'abseta:[0.9,1.2]'
p1057
(dp1058
g7
F1.0011004209518433
sg8
F0.0013576418154117292
sssS'pt:[30.0,40.0]'
p1059
(dp1060
S'abseta:[0.0,0.9]'
p1061
(dp1062
g7
F0.9991028308868408
sg8
F0.0002314245239078502
ssS'abseta:[1.2,2.1]'
p1063
(dp1064
g7
F1.000702142715454
sg8
F0.00023788753314026427
ssS'abseta:[2.1,2.4]'
p1065
(dp1066
g7
F0.9993519186973572
sg8
F0.00041482831094966386
ssS'abseta:[0.9,1.2]'
p1067
(dp1068
g7
F1.0003975629806519
sg8
F0.0004279839097761418
sssS'pt:[60.0,120.0]'
p1069
(dp1070
S'abseta:[0.0,0.9]'
p1071
(dp1072
g7
F0.999852180480957
sg8
F0.00026974977574490257
ssS'abseta:[1.2,2.1]'
p1073
(dp1074
g7
F0.9993939399719238
sg8
F0.0002795847543234115
ssS'abseta:[2.1,2.4]'
p1075
(dp1076
g7
F0.999775767326355
sg8
F0.0007168915917796349
ssS'abseta:[0.9,1.2]'
p1077
(dp1078
g7
F1.0001249313354492
sg8
F0.0004649583339792042
sssS'pt:[20.0,25.0]'
p1079
(dp1080
S'abseta:[0.0,0.9]'
p1081
(dp1082
g7
F0.9942305088043213
sg8
F0.001570203078321609
ssS'abseta:[1.2,2.1]'
p1083
(dp1084
g7
F0.9987950325012207
sg8
F0.0011066003085686052
ssS'abseta:[2.1,2.4]'
p1085
(dp1086
g7
F0.9926972389221191
sg8
F0.0019208331106556824
ssS'abseta:[0.9,1.2]'
p1087
(dp1088
g7
F0.9961681962013245
sg8
F0.002435191719338436
sssS'pt:[40.0,50.0]'
p1089
(dp1090
S'abseta:[0.0,0.9]'
p1091
(dp1092
g7
F0.9989860653877258
sg8
F4.394332603055124e-06
ssS'abseta:[1.2,2.1]'
p1093
(dp1094
g7
F0.9995694160461426
sg8
F1.8994425522296679e-06
ssS'abseta:[2.1,2.4]'
p1095
(dp1096
g7
F0.9997982382774353
sg8
F0.0001343348723459367
ssS'abseta:[0.9,1.2]'
p1097
(dp1098
g7
F0.9992179870605469
sg8
F8.991215627540607e-05
sssS'pt:[50.0,60.0]'
p1099
(dp1100
S'abseta:[0.0,0.9]'
p1101
(dp1102
g7
F0.9995925426483154
sg8
F0.0001839820695075386
ssS'abseta:[1.2,2.1]'
p1103
(dp1104
g7
F0.9995017647743225
sg8
F0.00018355690482951676
ssS'abseta:[2.1,2.4]'
p1105
(dp1106
g7
F0.9983455538749695
sg8
F0.002137558692084456
ssS'abseta:[0.9,1.2]'
p1107
(dp1108
g7
F1.0000133514404297
sg8
F0.0003152261273132389
ssssS'abseta_pt_ratio'
p1109
(dp1110
S'abseta:[0.0,0.9]'
p1111
(dp1112
S'pt:[25.0,30.0]'
p1113
(dp1114
g7
F0.9984727501869202
sg8
F0.0007892962637514733
ssS'pt:[30.0,40.0]'
p1115
(dp1116
g7
F0.9991028308868408
sg8
F0.0002314245239078502
ssS'pt:[60.0,120.0]'
p1117
(dp1118
g7
F0.999852180480957
sg8
F0.00026974977574490257
ssS'pt:[20.0,25.0]'
p1119
(dp1120
g7
F0.9942305088043213
sg8
F0.001570203078321609
ssS'pt:[40.0,50.0]'
p1121
(dp1122
g7
F0.9989860653877258
sg8
F4.394332603055124e-06
ssS'pt:[50.0,60.0]'
p1123
(dp1124
g7
F0.9995925426483154
sg8
F0.0001839820695075386
sssS'abseta:[1.2,2.1]'
p1125
(dp1126
S'pt:[25.0,30.0]'
p1127
(dp1128
g7
F1.0006983280181885
sg8
F0.0006713053191091243
ssS'pt:[30.0,40.0]'
p1129
(dp1130
g7
F1.000702142715454
sg8
F0.00023788753314026427
ssS'pt:[60.0,120.0]'
p1131
(dp1132
g7
F0.9993939399719238
sg8
F0.0002795847543234115
ssS'pt:[20.0,25.0]'
p1133
(dp1134
g7
F0.9987950325012207
sg8
F0.0011066003085686052
ssS'pt:[40.0,50.0]'
p1135
(dp1136
g7
F0.9995694160461426
sg8
F1.8994425522296679e-06
ssS'pt:[50.0,60.0]'
p1137
(dp1138
g7
F0.9995017647743225
sg8
F0.00018355690482951676
sssS'abseta:[2.1,2.4]'
p1139
(dp1140
S'pt:[25.0,30.0]'
p1141
(dp1142
g7
F0.9986113905906677
sg8
F0.0011025257619516145
ssS'pt:[30.0,40.0]'
p1143
(dp1144
g7
F0.9993519186973572
sg8
F0.00041482831094966386
ssS'pt:[60.0,120.0]'
p1145
(dp1146
g7
F0.999775767326355
sg8
F0.0007168915917796349
ssS'pt:[20.0,25.0]'
p1147
(dp1148
g7
F0.9926972389221191
sg8
F0.0019208331106556824
ssS'pt:[40.0,50.0]'
p1149
(dp1150
g7
F0.9997982382774353
sg8
F0.0001343348723459367
ssS'pt:[50.0,60.0]'
p1151
(dp1152
g7
F0.9983455538749695
sg8
F0.002137558692084456
sssS'abseta:[0.9,1.2]'
p1153
(dp1154
S'pt:[25.0,30.0]'
p1155
(dp1156
g7
F1.0011004209518433
sg8
F0.0013576418154117292
ssS'pt:[30.0,40.0]'
p1157
(dp1158
g7
F1.0003975629806519
sg8
F0.0004279839097761418
ssS'pt:[60.0,120.0]'
p1159
(dp1160
g7
F1.0001249313354492
sg8
F0.0004649583339792042
ssS'pt:[20.0,25.0]'
p1161
(dp1162
g7
F0.9961681962013245
sg8
F0.002435191719338436
ssS'pt:[40.0,50.0]'
p1163
(dp1164
g7
F0.9992179870605469
sg8
F8.991215627540607e-05
ssS'pt:[50.0,60.0]'
p1165
(dp1166
g7
F1.0000133514404297
sg8
F0.0003152261273132389
sssssS'LooseISO_TightID_eta'
p1167
(dp1168
S'eta_ratio'
p1169
(dp1170
S'eta:[-0.2,0.2]'
p1171
(dp1172
g7
F0.999665379524231
sg8
F0.00024229482117425622
ssS'eta:[-2.4,-2.1]'
p1173
(dp1174
g7
F0.9982442259788513
sg8
F0.00035936629766748703
ssS'eta:[0.3,0.9]'
p1175
(dp1176
g7
F1.0004491806030273
sg8
F0.00019350636156510753
ssS'eta:[-0.9,-0.3]'
p1177
(dp1178
g7
F1.0001314878463745
sg8
F0.00019536015524675797
ssS'eta:[0.2,0.3]'
p1179
(dp1180
g7
F1.0001730918884277
sg8
F0.0005248478297503504
ssS'eta:[0.9,1.2]'
p1181
(dp1182
g7
F1.0005944967269897
sg8
F0.00028596976391294414
ssS'eta:[-1.2,-0.9]'
p1183
(dp1184
g7
F0.9995917677879333
sg8
F0.00028321590972405213
ssS'eta:[2.1,2.4]'
p1185
(dp1186
g7
F0.9984086751937866
sg8
F0.0003477291436859909
ssS'eta:[-1.6,-1.2]'
p1187
(dp1188
g7
F0.9996417760848999
sg8
F0.00024151078393083142
ssS'eta:[1.2,1.6]'
p1189
(dp1190
g7
F0.9998993873596191
sg8
F0.0002365179219534293
ssS'eta:[-2.1,-1.6]'
p1191
(dp1192
g7
F0.9994087815284729
sg8
F0.00022512930214962977
ssS'eta:[-0.3,-0.2]'
p1193
(dp1194
g7
F0.9996693730354309
sg8
F0.0005057079377046701
ssS'eta:[1.6,2.1]'
p1195
(dp1196
g7
F0.9994213581085205
sg8
F0.00021990667763548133
ssssS'LooseISO_LooseID_pt'
p1197
(dp1198
S'pt_ratio'
p1199
(dp1200
S'pt:[25.0,30.0]'
p1201
(dp1202
g7
F1.0001626014709473
sg8
F0.00045216752867918865
ssS'pt:[30.0,40.0]'
p1203
(dp1204
g7
F0.999695360660553
sg8
F0.00014733225911106154
ssS'pt:[60.0,120.0]'
p1205
(dp1206
g7
F0.9996896982192993
sg8
F0.00017636746178440767
ssS'pt:[120.0,200.0]'
p1207
(dp1208
g7
F1.0009961128234863
sg8
F0.001162719120187836
ssS'pt:[20.0,25.0]'
p1209
(dp1210
g7
F0.9981746077537537
sg8
F0.0008103868729227002
ssS'pt:[40.0,50.0]'
p1211
(dp1212
g7
F0.9990969300270081
sg8
F6.523608377029308e-05
ssS'pt:[50.0,60.0]'
p1213
(dp1214
g7
F0.9994655251502991
sg8
F0.00011858439554738256
ssssS'TightISO_TightID_vtx'
p1215
(dp1216
S'tag_nVertices_ratio'
p1217
(dp1218
S'tag:[30.5,32.5]'
p1219
(dp1220
g7
F0.9922604560852051
sg8
F0.0020136515098882245
ssS'tag:[46.5,48.5]'
p1221
(dp1222
g7
F0.983339786529541
sg8
F0.02549316873956463
ssS'tag:[28.5,30.5]'
p1223
(dp1224
g7
F0.9913886785507202
sg8
F0.0014259044443833684
ssS'tag:[44.5,46.5]'
p1225
(dp1226
g7
F0.9647213220596313
sg8
F0.02370007865163848
ssS'tag:[6.5,8.5]'
p1227
(dp1228
g7
F0.9974778294563293
sg8
F0.0006087525055616768
ssS'tag:[14.5,16.5]'
p1229
(dp1230
g7
F0.9960118532180786
sg8
F0.00032677414563135577
ssS'tag:[50.5,52.5]'
p1231
(dp1232
g7
F1.0281723737716675
sg8
F0.07100049368688947
ssS'tag:[24.5,26.5]'
p1233
(dp1234
g7
F0.9930516481399536
sg8
F0.0007557274182126207
ssS'tag:[34.5,36.5]'
p1235
(dp1236
g7
F0.9929957389831543
sg8
F0.004432082620562153
ssS'tag:[8.5,10.5]'
p1237
(dp1238
g7
F0.9973739981651306
sg8
F0.0004383483849731011
ssS'tag:[18.5,20.5]'
p1239
(dp1240
g7
F0.9945380687713623
sg8
F0.0003949875125096669
ssS'tag:[16.5,18.5]'
p1241
(dp1242
g7
F0.9952542781829834
sg8
F0.00035024609774106515
ssS'tag:[32.5,34.5]'
p1243
(dp1244
g7
F0.9903113842010498
sg8
F0.0029291669929932787
ssS'tag:[48.5,50.5]'
p1245
(dp1246
g7
F0.9490129351615906
sg8
F0.04473180537333215
ssS'tag:[22.5,24.5]'
p1247
(dp1248
g7
F0.9939685463905334
sg8
F0.0005844021705486487
ssS'tag:[52.5,54.5]'
p1249
(dp1250
g7
F0.9607270359992981
sg8
F0.08079307648786797
ssS'tag:[42.5,44.5]'
p1251
(dp1252
g7
F0.9986954927444458
sg8
F0.012754793632947901
ssS'tag:[38.5,40.5]'
p1253
(dp1254
g7
F1.0021705627441406
sg8
F0.00820379491653912
ssS'tag:[2.5,4.5]'
p1255
(dp1256
g7
F0.9999004602432251
sg8
F0.0022002196478173902
ssS'tag:[12.5,14.5]'
p1257
(dp1258
g7
F0.9960777163505554
sg8
F0.0003325199026339607
ssS'tag:[0.5,2.5]'
p1259
(dp1260
g7
F0.9966402053833008
sg8
F0.0057267286895882905
ssS'tag:[40.5,42.5]'
p1261
(dp1262
g7
F0.9736924171447754
sg8
F0.012571577862108753
ssS'tag:[20.5,22.5]'
p1263
(dp1264
g7
F0.9942986369132996
sg8
F0.00046629763979133234
ssS'tag:[10.5,12.5]'
p1265
(dp1266
g7
F0.9964612722396851
sg8
F0.00036246084779305375
ssS'tag:[26.5,28.5]'
p1267
(dp1268
g7
F0.9926174879074097
sg8
F0.0010210401857616487
ssS'tag:[36.5,38.5]'
p1269
(dp1270
g7
F0.9847370386123657
sg8
F0.005331724259347339
ssS'tag:[4.5,6.5]'
p1271
(dp1272
g7
F0.9969494938850403
sg8
F0.00101229537545427
ssssS'LooseISO_LooseID_eta'
p1273
(dp1274
S'eta_ratio'
p1275
(dp1276
S'eta:[-0.2,0.2]'
p1277
(dp1278
g7
F0.999635636806488
sg8
F0.00024177165023799756
ssS'eta:[-2.4,-2.1]'
p1279
(dp1280
g7
F0.9982059597969055
sg8
F0.0003533360035960505
ssS'eta:[0.3,0.9]'
p1281
(dp1282
g7
F1.0004764795303345
sg8
F0.00019234872099021914
ssS'eta:[-0.9,-0.3]'
p1283
(dp1284
g7
F1.0000932216644287
sg8
F0.00019529631656893973
ssS'eta:[0.2,0.3]'
p1285
(dp1286
g7
F0.9997510313987732
sg8
F0.0004926713421098371
ssS'eta:[0.9,1.2]'
p1287
(dp1288
g7
F1.0004856586456299
sg8
F0.0002858852102061333
ssS'eta:[-1.2,-0.9]'
p1289
(dp1290
g7
F0.9993705749511719
sg8
F0.00028469461256452937
ssS'eta:[2.1,2.4]'
p1291
(dp1292
g7
F0.9984404444694519
sg8
F0.0003446262512759048
ssS'eta:[-1.6,-1.2]'
p1293
(dp1294
g7
F0.9996061325073242
sg8
F0.00024316363072425008
ssS'eta:[1.2,1.6]'
p1295
(dp1296
g7
F0.9997736811637878
sg8
F0.000237555189088104
ssS'eta:[-2.1,-1.6]'
p1297
(dp1298
g7
F0.9993535876274109
sg8
F0.00022349023533367197
ssS'eta:[-0.3,-0.2]'
p1299
(dp1300
g7
F0.9996989369392395
sg8
F0.0004861576883996328
ssS'eta:[1.6,2.1]'
p1301
(dp1302
g7
F0.999411404132843
sg8
F0.0002194092019023131
ssssS'TightISO_TightID_eta'
p1303
(dp1304
S'eta_ratio'
p1305
(dp1306
S'eta:[-0.2,0.2]'
p1307
(dp1308
g7
F0.9956279993057251
sg8
F0.0004056416878188716
ssS'eta:[-2.4,-2.1]'
p1309
(dp1310
g7
F0.9917727112770081
sg8
F0.0005825964654670188
ssS'eta:[0.3,0.9]'
p1311
(dp1312
g7
F0.9987344145774841
sg8
F0.0003252224445166726
ssS'eta:[-0.9,-0.3]'
p1313
(dp1314
g7
F0.9965795874595642
sg8
F0.00032878243087540877
ssS'eta:[0.2,0.3]'
p1315
(dp1316
g7
F0.9970735311508179
sg8
F0.0008605754027240819
ssS'eta:[0.9,1.2]'
p1317
(dp1318
g7
F0.9999784827232361
sg8
F0.0004734571507044215
ssS'eta:[-1.2,-0.9]'
p1319
(dp1320
g7
F0.9977142214775085
sg8
F0.00047081365032852014
ssS'eta:[2.1,2.4]'
p1321
(dp1322
g7
F0.9906438589096069
sg8
F0.0005681538178871696
ssS'eta:[-1.6,-1.2]'
p1323
(dp1324
g7
F0.9969331622123718
sg8
F0.00039546195985251355
ssS'eta:[1.2,1.6]'
p1325
(dp1326
g7
F0.9968193769454956
sg8
F0.00039188866271261906
ssS'eta:[-2.1,-1.6]'
p1327
(dp1328
g7
F0.994766891002655
sg8
F0.0003669074766605009
ssS'eta:[-0.3,-0.2]'
p1329
(dp1330
g7
F0.9965950846672058
sg8
F0.0008577800471718884
ssS'eta:[1.6,2.1]'
p1331
(dp1332
g7
F0.994458794593811
sg8
F0.00036568100447966867
ssssS'LooseISO_LooseID_vtx'
p1333
(dp1334
S'tag_nVertices_ratio'
p1335
(dp1336
S'tag:[30.5,32.5]'
p1337
(dp1338
g7
F0.9992102384567261
sg8
F0.0011279421977386233
ssS'tag:[46.5,48.5]'
p1339
(dp1340
g7
F0.9968610405921936
sg8
F0.013807927480646803
ssS'tag:[28.5,30.5]'
p1341
(dp1342
g7
F0.9982312917709351
sg8
F0.0008114561571421892
ssS'tag:[44.5,46.5]'
p1343
(dp1344
g7
F0.9940503835678101
sg8
F0.015010887620081442
ssS'tag:[6.5,8.5]'
p1345
(dp1346
g7
F0.9994815587997437
sg8
F0.0003801973526018771
ssS'tag:[14.5,16.5]'
p1347
(dp1348
g7
F0.999719500541687
sg8
F0.00019524276427401233
ssS'tag:[50.5,52.5]'
p1349
(dp1350
g7
F1.0122685432434082
sg8
F0.04836257349404955
ssS'tag:[24.5,26.5]'
p1351
(dp1352
g7
F0.9990385174751282
sg8
F0.0004433413691807238
ssS'tag:[34.5,36.5]'
p1353
(dp1354
g7
F0.9961715936660767
sg8
F0.0019196673268938162
ssS'tag:[8.5,10.5]'
p1355
(dp1356
g7
F0.9998838901519775
sg8
F0.000268299658644139
ssS'tag:[18.5,20.5]'
p1357
(dp1358
g7
F0.9991758465766907
sg8
F0.0002371503396030002
ssS'tag:[16.5,18.5]'
p1359
(dp1360
g7
F0.999644935131073
sg8
F0.00020894779505210953
ssS'tag:[32.5,34.5]'
p1361
(dp1362
g7
F0.9963251352310181
sg8
F0.0017757035132450298
ssS'tag:[48.5,50.5]'
p1363
(dp1364
g7
F0.9898086786270142
sg8
F0.020502370752865866
ssS'tag:[22.5,24.5]'
p1365
(dp1366
g7
F0.9989991784095764
sg8
F0.00034245188074938414
ssS'tag:[52.5,54.5]'
p1367
(dp1368
g7
F0.965464174747467
sg8
F0.05448597286766693
ssS'tag:[42.5,44.5]'
p1369
(dp1370
g7
F0.9964365363121033
sg8
F0.00793639235027411
ssS'tag:[38.5,40.5]'
p1371
(dp1372
g7
F0.9994075894355774
sg8
F0.004326422011940467
ssS'tag:[2.5,4.5]'
p1373
(dp1374
g7
F0.998901903629303
sg8
F0.0017527598042264972
ssS'tag:[12.5,14.5]'
p1375
(dp1376
g7
F0.9996458292007446
sg8
F0.0001993581569284194
ssS'tag:[0.5,2.5]'
p1377
(dp1378
g7
F0.9996433258056641
sg8
F0.003842901167002788
ssS'tag:[40.5,42.5]'
p1379
(dp1380
g7
F0.9907405972480774
sg8
F0.006745864086135962
ssS'tag:[20.5,22.5]'
p1381
(dp1382
g7
F0.9993117451667786
sg8
F0.00027824169940124046
ssS'tag:[10.5,12.5]'
p1383
(dp1384
g7
F0.9999131560325623
sg8
F0.00022127390924889487
ssS'tag:[26.5,28.5]'
p1385
(dp1386
g7
F0.9986898899078369
sg8
F0.0005849672157633539
ssS'tag:[36.5,38.5]'
p1387
(dp1388
g7
F0.9980162382125854
sg8
F0.0029544659693465595
ssS'tag:[4.5,6.5]'
p1389
(dp1390
g7
F0.9994535446166992
sg8
F0.0006201023423776095
ssss.