(dp0
S'LooseISO_TightID_vtx'
p1
(dp2
S'tag_nVertices_ratio'
p3
(dp4
S'tag:[30.5,32.5]'
p5
(dp6
S'value'
p7
F1.0002933740615845
sS'error'
p8
F0.0006646906602104473
ssS'tag:[46.5,48.5]'
p9
(dp10
g7
F1.0030572414398193
sg8
F0.006676592323888775
ssS'tag:[28.5,30.5]'
p11
(dp12
g7
F1.0000678300857544
sg8
F0.000539204623862815
ssS'tag:[44.5,46.5]'
p13
(dp14
g7
F0.9930558800697327
sg8
F0.014339884312721762
ssS'tag:[6.5,8.5]'
p15
(dp16
g7
F0.9994853138923645
sg8
F0.0004217527703289968
ssS'tag:[14.5,16.5]'
p17
(dp18
g7
F0.9995831847190857
sg8
F0.00020053738792293025
ssS'tag:[50.5,52.5]'
p19
(dp20
g7
F1.014021635055542
sg8
F0.016334504681165495
ssS'tag:[24.5,26.5]'
p21
(dp22
g7
F1.0003246068954468
sg8
F0.0003432894873448957
ssS'tag:[34.5,36.5]'
p23
(dp24
g7
F1.0000742673873901
sg8
F0.0011586111085173875
ssS'tag:[8.5,10.5]'
p25
(dp26
g7
F0.9995774030685425
sg8
F0.00029350998406387315
ssS'tag:[18.5,20.5]'
p27
(dp28
g7
F0.9997051954269409
sg8
F0.0002248055563987091
ssS'tag:[16.5,18.5]'
p29
(dp30
g7
F0.9998632669448853
sg8
F0.0002068822305473141
ssS'tag:[32.5,34.5]'
p31
(dp32
g7
F1.000152349472046
sg8
F0.000838444929091446
ssS'tag:[48.5,50.5]'
p33
(dp34
g7
F0.9996899962425232
sg8
F0.008581259341774386
ssS'tag:[22.5,24.5]'
p35
(dp36
g7
F1.0002951622009277
sg8
F0.00028480594122616684
ssS'tag:[52.5,54.5]'
p37
(dp38
g7
F1.0052108764648438
sg8
F0.030717720038771098
ssS'tag:[42.5,44.5]'
p39
(dp40
g7
F1.0077106952667236
sg8
F0.0038477448499727187
ssS'tag:[38.5,40.5]'
p41
(dp42
g7
F1.002083420753479
sg8
F0.0021415691906791507
ssS'tag:[2.5,4.5]'
p43
(dp44
g7
F0.9994357824325562
sg8
F0.0019861579814874214
ssS'tag:[12.5,14.5]'
p45
(dp46
g7
F0.9998198747634888
sg8
F0.0002092639197205818
ssS'tag:[0.5,2.5]'
p47
(dp48
g7
F1.0069165229797363
sg8
F0.0037892107682579628
ssS'tag:[40.5,42.5]'
p49
(dp50
g7
F1.0014116764068604
sg8
F0.0028937029866477203
ssS'tag:[20.5,22.5]'
p51
(dp52
g7
F0.999874472618103
sg8
F0.00024829465099691526
ssS'tag:[10.5,12.5]'
p53
(dp54
g7
F0.9998807311058044
sg8
F0.00023720095181317045
ssS'tag:[26.5,28.5]'
p55
(dp56
g7
F1.0000704526901245
sg8
F0.0004134784017734142
ssS'tag:[36.5,38.5]'
p57
(dp58
g7
F1.0009562969207764
sg8
F0.001569339482176821
ssS'tag:[4.5,6.5]'
p59
(dp60
g7
F0.9990320205688477
sg8
F0.0007168097938721752
ssssS'LooseISO_TightID_pt'
p61
(dp62
S'pt_ratio'
p63
(dp64
S'pt:[25.0,30.0]'
p65
(dp66
g7
F1.0008317232131958
sg8
F0.0004636123540817337
ssS'pt:[30.0,40.0]'
p67
(dp68
g7
F0.999851644039154
sg8
F0.00015060155687487086
ssS'pt:[60.0,120.0]'
p69
(dp70
g7
F0.9998558163642883
sg8
F0.0001729546696443613
ssS'pt:[120.0,200.0]'
p71
(dp72
g7
F1.002028226852417
sg8
F0.0010970129204877159
ssS'pt:[20.0,25.0]'
p73
(dp74
g7
F0.9989932775497437
sg8
F0.0008299034285069778
ssS'pt:[40.0,50.0]'
p75
(dp76
g7
F0.9994080662727356
sg8
F6.497225443944094e-05
ssS'pt:[50.0,60.0]'
p77
(dp78
g7
F0.9996845126152039
sg8
F0.00011872976985873108
ssssS'TightISO_MediumID_vtx'
p79
(dp80
S'tag_nVertices_ratio'
p81
(dp82
S'tag:[30.5,32.5]'
p83
(dp84
g7
F0.9985765814781189
sg8
F0.0011186989737693202
ssS'tag:[46.5,48.5]'
p85
(dp86
g7
F0.9712574481964111
sg8
F0.014968720605597055
ssS'tag:[28.5,30.5]'
p87
(dp88
g7
F0.9990953207015991
sg8
F0.0008805667064502921
ssS'tag:[44.5,46.5]'
p89
(dp90
g7
F0.9930884838104248
sg8
F0.00943576958840914
ssS'tag:[6.5,8.5]'
p91
(dp92
g7
F0.9965961575508118
sg8
F0.0006740817749220009
ssS'tag:[14.5,16.5]'
p93
(dp94
g7
F0.9962899684906006
sg8
F0.00033147402967159895
ssS'tag:[50.5,52.5]'
p95
(dp96
g7
F1.0085294246673584
sg8
F0.018597540381976786
ssS'tag:[24.5,26.5]'
p97
(dp98
g7
F0.9967762231826782
sg8
F0.0005725306580886604
ssS'tag:[34.5,36.5]'
p99
(dp100
g7
F0.9994334578514099
sg8
F0.0019025230350058848
ssS'tag:[8.5,10.5]'
p101
(dp102
g7
F0.9965823888778687
sg8
F0.00047440628946697873
ssS'tag:[18.5,20.5]'
p103
(dp104
g7
F0.9964483380317688
sg8
F0.0003685163447744509
ssS'tag:[16.5,18.5]'
p105
(dp106
g7
F0.9965690970420837
sg8
F0.0003428366350435891
ssS'tag:[32.5,34.5]'
p107
(dp108
g7
F0.9978815317153931
sg8
F0.0014572746146323495
ssS'tag:[48.5,50.5]'
p109
(dp110
g7
F0.9904152750968933
sg8
F0.01807571686969128
ssS'tag:[22.5,24.5]'
p111
(dp112
g7
F0.9970759153366089
sg8
F0.00047814087806402665
ssS'tag:[52.5,54.5]'
p113
(dp114
g7
F0.9946895241737366
sg8
F0.027889006511261444
ssS'tag:[42.5,44.5]'
p115
(dp116
g7
F1.005470633506775
sg8
F0.006670308660205892
ssS'tag:[38.5,40.5]'
p117
(dp118
g7
F1.001407265663147
sg8
F0.0037471455567341075
ssS'tag:[2.5,4.5]'
p119
(dp120
g7
F0.9968394041061401
sg8
F0.0025320205487209375
ssS'tag:[12.5,14.5]'
p121
(dp122
g7
F0.9961578845977783
sg8
F0.00034587532537449784
ssS'tag:[0.5,2.5]'
p123
(dp124
g7
F1.0074564218521118
sg8
F0.005979698246389023
ssS'tag:[40.5,42.5]'
p125
(dp126
g7
F0.9982587695121765
sg8
F0.005153336339288743
ssS'tag:[20.5,22.5]'
p127
(dp128
g7
F0.9967936873435974
sg8
F0.0004111524530061856
ssS'tag:[10.5,12.5]'
p129
(dp130
g7
F0.9961399435997009
sg8
F0.00038722611751572725
ssS'tag:[26.5,28.5]'
p131
(dp132
g7
F0.997098982334137
sg8
F0.0006970942253025234
ssS'tag:[36.5,38.5]'
p133
(dp134
g7
F0.9972342252731323
sg8
F0.0026068050680710638
ssS'tag:[4.5,6.5]'
p135
(dp136
g7
F0.996520459651947
sg8
F0.0011430367221131699
ssssS'tkLooseISO_highptID_newpt'
p137
(dp138
S'pair_ne_ratio'
p139
(dp140
S'pair:[120.0,200.0]'
p141
(dp142
g7
F1.0006154775619507
sg8
F0.0010873489231765154
ssS'pair:[21.0,25.0]'
p143
(dp144
g7
F0.9964336156845093
sg8
F0.0008477802247394189
ssS'pair:[55.0,60.0]'
p145
(dp146
g7
F0.9993072748184204
sg8
F0.00023727131688302007
ssS'pair:[25.0,30.0]'
p147
(dp148
g7
F0.9984742403030396
sg8
F0.0004483621777150165
ssS'pair:[30.0,40.0]'
p149
(dp150
g7
F0.9989486336708069
sg8
F0.0001502127880285784
ssS'pair:[40.0,50.0]'
p151
(dp152
g7
F0.9991373419761658
sg8
F0.009311586895853012
ssS'pair:[50.0,55.0]'
p153
(dp154
g7
F0.998997688293457
sg8
F0.00017422552421294648
ssS'pair:[60.0,120.0]'
p155
(dp156
g7
F0.999426543712616
sg8
F0.00019841416708749093
ssssS'tkLooseISO_highptID_newpt_eta'
p157
(dp158
S'abseta_pair_ne_ratio'
p159
(dp160
S'abseta:[0.0,0.9]'
p161
(dp162
S'pair:[55.0,60.0]'
p163
(dp164
g7
F0.9987900853157043
sg8
F0.0003829102486426
ssS'pair:[25.0,30.0]'
p165
(dp166
g7
F0.9950847029685974
sg8
F0.0007354895599332617
ssS'pair:[30.0,40.0]'
p167
(dp168
g7
F0.9974637031555176
sg8
F0.00022707029823648407
ssS'pair:[50.0,55.0]'
p169
(dp170
g7
F0.9986798763275146
sg8
F0.0002701286170471511
ssS'pair:[40.0,50.0]'
p171
(dp172
g7
F0.9988086223602295
sg8
F0.00011929104764177077
ssS'pair:[60.0,120.0]'
p173
(dp174
g7
F0.9995642900466919
sg8
F0.00030158303944724274
ssS'pair:[20.0,25.0]'
p175
(dp176
g7
F0.9918699860572815
sg8
F0.0015422623301890937
sssS'abseta:[1.2,2.1]'
p177
(dp178
S'pair:[55.0,60.0]'
p179
(dp180
g7
F1.0001229047775269
sg8
F0.0004393290310728159
ssS'pair:[25.0,30.0]'
p181
(dp182
g7
F1.0004078149795532
sg8
F0.0006895861517821989
ssS'pair:[30.0,40.0]'
p183
(dp184
g7
F1.0004757642745972
sg8
F0.0002615597292105403
ssS'pair:[50.0,55.0]'
p185
(dp186
g7
F0.9996461868286133
sg8
F0.0002878767299085137
ssS'pair:[40.0,50.0]'
p187
(dp188
g7
F0.99989253282547
sg8
F0.00011316937911098811
ssS'pair:[60.0,120.0]'
p189
(dp190
g7
F0.9993410110473633
sg8
F0.0003229310070883644
ssS'pair:[20.0,25.0]'
p191
(dp192
g7
F0.9957687258720398
sg8
F0.00115850169195845
sssS'abseta:[2.1,2.4]'
p193
(dp194
S'pair:[55.0,60.0]'
p195
(dp196
g7
F1.0003001689910889
sg8
F0.0008537739381511307
ssS'pair:[25.0,30.0]'
p197
(dp198
g7
F1.0020725727081299
sg8
F0.0010741813626418103
ssS'pair:[30.0,40.0]'
p199
(dp200
g7
F1.0004258155822754
sg8
F0.0004113385972600344
ssS'pair:[50.0,55.0]'
p201
(dp202
g7
F0.9999148845672607
sg8
F0.0005673697507860953
ssS'pair:[40.0,50.0]'
p203
(dp204
g7
F1.0000454187393188
sg8
F0.00015140323286618116
ssS'pair:[60.0,120.0]'
p205
(dp206
g7
F1.0006074905395508
sg8
F0.000755908188610516
ssS'pair:[20.0,25.0]'
p207
(dp208
g7
F1.0000836849212646
sg8
F0.001769493030722117
sssS'abseta:[0.9,1.2]'
p209
(dp210
S'pair:[55.0,60.0]'
p211
(dp212
g7
F0.9982542991638184
sg8
F0.00036404854351634733
ssS'pair:[25.0,30.0]'
p213
(dp214
g7
F0.9985593557357788
sg8
F0.0013625225387070836
ssS'pair:[30.0,40.0]'
p215
(dp216
g7
F1.000162959098816
sg8
F0.00043375608114754933
ssS'pair:[50.0,55.0]'
p217
(dp218
g7
F0.999349057674408
sg8
F0.006209313487478734
ssS'pair:[40.0,50.0]'
p219
(dp220
g7
F0.999387800693512
sg8
F0.009562688984765777
ssS'pair:[60.0,120.0]'
p221
(dp222
g7
F0.9993807673454285
sg8
F0.0005532211060488184
ssS'pair:[20.0,25.0]'
p223
(dp224
g7
F0.9942268133163452
sg8
F0.002306778704426703
ssssS'pair_ne_ratio'
p225
(dp226
S'pair:[55.0,60.0]'
p227
(dp228
S'ne:[2.1,2.4]'
p229
(dp230
g7
F1.0003001689910889
sg8
F0.0008537739381511307
ssS'ne:[1.2,2.1]'
p231
(dp232
g7
F1.0001229047775269
sg8
F0.0004393290310728159
ssS'ne:[0.0,0.9]'
p233
(dp234
g7
F0.9987900853157043
sg8
F0.0003829102486426
ssS'ne:[0.9,1.2]'
p235
(dp236
g7
F0.9982542991638184
sg8
F0.00036404854351634733
sssS'pair:[25.0,30.0]'
p237
(dp238
S'ne:[2.1,2.4]'
p239
(dp240
g7
F1.0020725727081299
sg8
F0.0010741813626418103
ssS'ne:[1.2,2.1]'
p241
(dp242
g7
F1.0004078149795532
sg8
F0.0006895861517821989
ssS'ne:[0.0,0.9]'
p243
(dp244
g7
F0.9950847029685974
sg8
F0.0007354895599332617
ssS'ne:[0.9,1.2]'
p245
(dp246
g7
F0.9985593557357788
sg8
F0.0013625225387070836
sssS'pair:[30.0,40.0]'
p247
(dp248
S'ne:[2.1,2.4]'
p249
(dp250
g7
F1.0004258155822754
sg8
F0.0004113385972600344
ssS'ne:[1.2,2.1]'
p251
(dp252
g7
F1.0004757642745972
sg8
F0.0002615597292105403
ssS'ne:[0.0,0.9]'
p253
(dp254
g7
F0.9974637031555176
sg8
F0.00022707029823648407
ssS'ne:[0.9,1.2]'
p255
(dp256
g7
F1.000162959098816
sg8
F0.00043375608114754933
sssS'pair:[50.0,55.0]'
p257
(dp258
S'ne:[2.1,2.4]'
p259
(dp260
g7
F0.9999148845672607
sg8
F0.0005673697507860953
ssS'ne:[1.2,2.1]'
p261
(dp262
g7
F0.9996461868286133
sg8
F0.0002878767299085137
ssS'ne:[0.0,0.9]'
p263
(dp264
g7
F0.9986798763275146
sg8
F0.0002701286170471511
ssS'ne:[0.9,1.2]'
p265
(dp266
g7
F0.999349057674408
sg8
F0.006209313487478734
sssS'pair:[40.0,50.0]'
p267
(dp268
S'ne:[2.1,2.4]'
p269
(dp270
g7
F1.0000454187393188
sg8
F0.00015140323286618116
ssS'ne:[1.2,2.1]'
p271
(dp272
g7
F0.99989253282547
sg8
F0.00011316937911098811
ssS'ne:[0.0,0.9]'
p273
(dp274
g7
F0.9988086223602295
sg8
F0.00011929104764177077
ssS'ne:[0.9,1.2]'
p275
(dp276
g7
F0.999387800693512
sg8
F0.009562688984765777
sssS'pair:[60.0,120.0]'
p277
(dp278
S'ne:[2.1,2.4]'
p279
(dp280
g7
F1.0006074905395508
sg8
F0.000755908188610516
ssS'ne:[1.2,2.1]'
p281
(dp282
g7
F0.9993410110473633
sg8
F0.0003229310070883644
ssS'ne:[0.0,0.9]'
p283
(dp284
g7
F0.9995642900466919
sg8
F0.00030158303944724274
ssS'ne:[0.9,1.2]'
p285
(dp286
g7
F0.9993807673454285
sg8
F0.0005532211060488184
sssS'pair:[20.0,25.0]'
p287
(dp288
S'ne:[2.1,2.4]'
p289
(dp290
g7
F1.0000836849212646
sg8
F0.001769493030722117
ssS'ne:[1.2,2.1]'
p291
(dp292
g7
F0.9957687258720398
sg8
F0.00115850169195845
ssS'ne:[0.0,0.9]'
p293
(dp294
g7
F0.9918699860572815
sg8
F0.0015422623301890937
ssS'ne:[0.9,1.2]'
p295
(dp296
g7
F0.9942268133163452
sg8
F0.002306778704426703
sssssS'TightISO_TightID_pt_eta'
p297
(dp298
S'pt_abseta_ratio'
p299
(dp300
S'pt:[25.0,30.0]'
p301
(dp302
S'abseta:[0.0,0.9]'
p303
(dp304
g7
F0.9927912354469299
sg8
F0.0012204791344340659
ssS'abseta:[1.2,2.1]'
p305
(dp306
g7
F0.9979604482650757
sg8
F0.0010033123821959378
ssS'abseta:[2.1,2.4]'
p307
(dp308
g7
F0.9990979433059692
sg8
F0.0017457488112940691
ssS'abseta:[0.9,1.2]'
p309
(dp310
g7
F0.9997264742851257
sg8
F0.0020812812256173203
sssS'pt:[30.0,40.0]'
p311
(dp312
S'abseta:[0.0,0.9]'
p313
(dp314
g7
F0.9934524893760681
sg8
F0.00039603820523641985
ssS'abseta:[1.2,2.1]'
p315
(dp316
g7
F0.998979926109314
sg8
F0.00037965236826875877
ssS'abseta:[2.1,2.4]'
p317
(dp318
g7
F1.0000627040863037
sg8
F0.0006918133403106801
ssS'abseta:[0.9,1.2]'
p319
(dp320
g7
F0.9995983839035034
sg8
F0.0007050313424653646
sssS'pt:[60.0,120.0]'
p321
(dp322
S'abseta:[0.0,0.9]'
p323
(dp324
g7
F0.9990639090538025
sg8
F0.00047204355563676826
ssS'abseta:[1.2,2.1]'
p325
(dp326
g7
F0.9994531273841858
sg8
F0.0004607170735975911
ssS'abseta:[2.1,2.4]'
p327
(dp328
g7
F1.001529335975647
sg8
F0.0011228941032160333
ssS'abseta:[0.9,1.2]'
p329
(dp330
g7
F0.9989076852798462
sg8
F0.0007940285454478886
sssS'pt:[20.0,25.0]'
p331
(dp332
S'abseta:[0.0,0.9]'
p333
(dp334
g7
F0.9811440110206604
sg8
F0.0022826275272841284
ssS'abseta:[1.2,2.1]'
p335
(dp336
g7
F0.9936866760253906
sg8
F0.0016758755490560197
ssS'abseta:[2.1,2.4]'
p337
(dp338
g7
F0.9942328929901123
sg8
F0.0028579567205129462
ssS'abseta:[0.9,1.2]'
p339
(dp340
g7
F0.9976617097854614
sg8
F0.003562962340210607
sssS'pt:[40.0,50.0]'
p341
(dp342
S'abseta:[0.0,0.9]'
p343
(dp344
g7
F0.9951995015144348
sg8
F0.00013021368202318205
ssS'abseta:[1.2,2.1]'
p345
(dp346
g7
F0.9986027479171753
sg8
F8.121137689214685e-06
ssS'abseta:[2.1,2.4]'
p347
(dp348
g7
F1.000220775604248
sg8
F0.00025958343928009193
ssS'abseta:[0.9,1.2]'
p349
(dp350
g7
F0.9983240365982056
sg8
F0.0002996909718699914
sssS'pt:[50.0,60.0]'
p351
(dp352
S'abseta:[0.0,0.9]'
p353
(dp354
g7
F0.9967161417007446
sg8
F0.00037370197000639323
ssS'abseta:[1.2,2.1]'
p355
(dp356
g7
F0.9987995624542236
sg8
F0.00034043197143382675
ssS'abseta:[2.1,2.4]'
p357
(dp358
g7
F1.0000028610229492
sg8
F0.0007867309826172929
ssS'abseta:[0.9,1.2]'
p359
(dp360
g7
F0.9988871812820435
sg8
F0.0006113523418740895
ssssS'abseta_pt_ratio'
p361
(dp362
S'abseta:[0.0,0.9]'
p363
(dp364
S'pt:[25.0,30.0]'
p365
(dp366
g7
F0.9927912354469299
sg8
F0.0012204791344340659
ssS'pt:[30.0,40.0]'
p367
(dp368
g7
F0.9934524893760681
sg8
F0.00039603820523641985
ssS'pt:[60.0,120.0]'
p369
(dp370
g7
F0.9990639090538025
sg8
F0.00047204355563676826
ssS'pt:[20.0,25.0]'
p371
(dp372
g7
F0.9811440110206604
sg8
F0.0022826275272841284
ssS'pt:[40.0,50.0]'
p373
(dp374
g7
F0.9951995015144348
sg8
F0.00013021368202318205
ssS'pt:[50.0,60.0]'
p375
(dp376
g7
F0.9967161417007446
sg8
F0.00037370197000639323
sssS'abseta:[1.2,2.1]'
p377
(dp378
S'pt:[25.0,30.0]'
p379
(dp380
g7
F0.9979604482650757
sg8
F0.0010033123821959378
ssS'pt:[30.0,40.0]'
p381
(dp382
g7
F0.998979926109314
sg8
F0.00037965236826875877
ssS'pt:[60.0,120.0]'
p383
(dp384
g7
F0.9994531273841858
sg8
F0.0004607170735975911
ssS'pt:[20.0,25.0]'
p385
(dp386
g7
F0.9936866760253906
sg8
F0.0016758755490560197
ssS'pt:[40.0,50.0]'
p387
(dp388
g7
F0.9986027479171753
sg8
F8.121137689214685e-06
ssS'pt:[50.0,60.0]'
p389
(dp390
g7
F0.9987995624542236
sg8
F0.00034043197143382675
sssS'abseta:[2.1,2.4]'
p391
(dp392
S'pt:[25.0,30.0]'
p393
(dp394
g7
F0.9990979433059692
sg8
F0.0017457488112940691
ssS'pt:[30.0,40.0]'
p395
(dp396
g7
F1.0000627040863037
sg8
F0.0006918133403106801
ssS'pt:[60.0,120.0]'
p397
(dp398
g7
F1.001529335975647
sg8
F0.0011228941032160333
ssS'pt:[20.0,25.0]'
p399
(dp400
g7
F0.9942328929901123
sg8
F0.0028579567205129462
ssS'pt:[40.0,50.0]'
p401
(dp402
g7
F1.000220775604248
sg8
F0.00025958343928009193
ssS'pt:[50.0,60.0]'
p403
(dp404
g7
F1.0000028610229492
sg8
F0.0007867309826172929
sssS'abseta:[0.9,1.2]'
p405
(dp406
S'pt:[25.0,30.0]'
p407
(dp408
g7
F0.9997264742851257
sg8
F0.0020812812256173203
ssS'pt:[30.0,40.0]'
p409
(dp410
g7
F0.9995983839035034
sg8
F0.0007050313424653646
ssS'pt:[60.0,120.0]'
p411
(dp412
g7
F0.9989076852798462
sg8
F0.0007940285454478886
ssS'pt:[20.0,25.0]'
p413
(dp414
g7
F0.9976617097854614
sg8
F0.003562962340210607
ssS'pt:[40.0,50.0]'
p415
(dp416
g7
F0.9983240365982056
sg8
F0.0002996909718699914
ssS'pt:[50.0,60.0]'
p417
(dp418
g7
F0.9988871812820435
sg8
F0.0006113523418740895
sssssS'LooseISO_MediumID_eta'
p419
(dp420
S'eta_ratio'
p421
(dp422
S'eta:[-0.2,0.2]'
p423
(dp424
g7
F0.9990101456642151
sg8
F0.00024631105239712384
ssS'eta:[-2.4,-2.1]'
p425
(dp426
g7
F1.0004160404205322
sg8
F0.0003545565977915327
ssS'eta:[0.3,0.9]'
p427
(dp428
g7
F1.0000494718551636
sg8
F0.00019606387080225768
ssS'eta:[-0.9,-0.3]'
p429
(dp430
g7
F1.0000959634780884
sg8
F0.00019937459231955069
ssS'eta:[0.2,0.3]'
p431
(dp432
g7
F0.9992360472679138
sg8
F0.000503950961276973
ssS'eta:[0.9,1.2]'
p433
(dp434
g7
F1.0001895427703857
sg8
F0.00028883821582523217
ssS'eta:[-1.2,-0.9]'
p435
(dp436
g7
F0.9999299645423889
sg8
F0.0002826891935271295
ssS'eta:[2.1,2.4]'
p437
(dp438
g7
F1.000304102897644
sg8
F0.0003461721316387991
ssS'eta:[-1.6,-1.2]'
p439
(dp440
g7
F0.9999104142189026
sg8
F0.00024338349974398725
ssS'eta:[1.2,1.6]'
p441
(dp442
g7
F1.0002776384353638
sg8
F0.00023712665477281143
ssS'eta:[-2.1,-1.6]'
p443
(dp444
g7
F1.0001229047775269
sg8
F0.00022458665607241266
ssS'eta:[-0.3,-0.2]'
p445
(dp446
g7
F0.9995855689048767
sg8
F0.0004912855668537588
ssS'eta:[1.6,2.1]'
p447
(dp448
g7
F0.9998804926872253
sg8
F0.00021776955699364325
ssssS'LooseISO_MediumID_pt'
p449
(dp450
S'pt_ratio'
p451
(dp452
S'pt:[25.0,30.0]'
p453
(dp454
g7
F1.0007213354110718
sg8
F0.0004607931690235838
ssS'pt:[30.0,40.0]'
p455
(dp456
g7
F0.9997699856758118
sg8
F0.0001495660753144971
ssS'pt:[60.0,120.0]'
p457
(dp458
g7
F0.9998087286949158
sg8
F0.0001722615397478553
ssS'pt:[120.0,200.0]'
p459
(dp460
g7
F1.0024926662445068
sg8
F0.0011132426813005875
ssS'pt:[20.0,25.0]'
p461
(dp462
g7
F0.9988210201263428
sg8
F0.0008239874658817155
ssS'pt:[40.0,50.0]'
p463
(dp464
g7
F0.9993749856948853
sg8
F6.671546716627497e-05
ssS'pt:[50.0,60.0]'
p465
(dp466
g7
F0.9996253252029419
sg8
F0.00011826854090311109
ssssS'LooseISO_LooseID_pt_eta'
p467
(dp468
S'pt_abseta_ratio'
p469
(dp470
S'pt:[25.0,30.0]'
p471
(dp472
S'abseta:[0.0,0.9]'
p473
(dp474
g7
F0.9981151223182678
sg8
F0.0007978547225730189
ssS'abseta:[1.2,2.1]'
p475
(dp476
g7
F1.0021071434020996
sg8
F0.0006324457003186804
ssS'abseta:[2.1,2.4]'
p477
(dp478
g7
F1.0038812160491943
sg8
F0.0010619580291553695
ssS'abseta:[0.9,1.2]'
p479
(dp480
g7
F1.0003629922866821
sg8
F0.0014019958096358673
sssS'pt:[30.0,40.0]'
p481
(dp482
S'abseta:[0.0,0.9]'
p483
(dp484
g7
F0.9985136985778809
sg8
F0.00023543351253604017
ssS'abseta:[1.2,2.1]'
p485
(dp486
g7
F1.0011043548583984
sg8
F0.00023410308262556567
ssS'abseta:[2.1,2.4]'
p487
(dp488
g7
F1.0009872913360596
sg8
F0.00040359068030639325
ssS'abseta:[0.9,1.2]'
p489
(dp490
g7
F1.0004063844680786
sg8
F0.00042868453499942104
sssS'pt:[60.0,120.0]'
p491
(dp492
S'abseta:[0.0,0.9]'
p493
(dp494
g7
F0.999878466129303
sg8
F0.00027015827010158205
ssS'abseta:[1.2,2.1]'
p495
(dp496
g7
F0.9996679425239563
sg8
F0.00028615512065183354
ssS'abseta:[2.1,2.4]'
p497
(dp498
g7
F1.000587821006775
sg8
F0.0007212942156597073
ssS'abseta:[0.9,1.2]'
p499
(dp500
g7
F0.9999812841415405
sg8
F0.0004790572817542593
sssS'pt:[20.0,25.0]'
p501
(dp502
S'abseta:[0.0,0.9]'
p503
(dp504
g7
F0.9913793206214905
sg8
F0.0016222606677659683
ssS'abseta:[1.2,2.1]'
p505
(dp506
g7
F1.0005149841308594
sg8
F0.0010918273193089272
ssS'abseta:[2.1,2.4]'
p507
(dp508
g7
F1.0006941556930542
sg8
F0.001856086725758255
ssS'abseta:[0.9,1.2]'
p509
(dp510
g7
F0.9983072876930237
sg8
F0.0024431368164970443
sssS'pt:[40.0,50.0]'
p511
(dp512
S'abseta:[0.0,0.9]'
p513
(dp514
g7
F0.9991632103919983
sg8
F0.00010620497279179958
ssS'abseta:[1.2,2.1]'
p515
(dp516
g7
F0.9996386170387268
sg8
F2.1124803760020863e-06
ssS'abseta:[2.1,2.4]'
p517
(dp518
g7
F1.0003851652145386
sg8
F0.00018349947871828837
ssS'abseta:[0.9,1.2]'
p519
(dp520
g7
F0.9995023608207703
sg8
F4.6450256237808135e-06
sssS'pt:[50.0,60.0]'
p521
(dp522
S'abseta:[0.0,0.9]'
p523
(dp524
g7
F0.9996442794799805
sg8
F0.0001879079521999704
ssS'abseta:[1.2,2.1]'
p525
(dp526
g7
F0.9997607469558716
sg8
F0.00018720637150756322
ssS'abseta:[2.1,2.4]'
p527
(dp528
g7
F0.9999281764030457
sg8
F0.0004407961862353725
ssS'abseta:[0.9,1.2]'
p529
(dp530
g7
F0.9995049238204956
sg8
F0.00033390183581508755
ssssS'abseta_pt_ratio'
p531
(dp532
S'abseta:[0.0,0.9]'
p533
(dp534
S'pt:[25.0,30.0]'
p535
(dp536
g7
F0.9981151223182678
sg8
F0.0007978547225730189
ssS'pt:[30.0,40.0]'
p537
(dp538
g7
F0.9985136985778809
sg8
F0.00023543351253604017
ssS'pt:[60.0,120.0]'
p539
(dp540
g7
F0.999878466129303
sg8
F0.00027015827010158205
ssS'pt:[20.0,25.0]'
p541
(dp542
g7
F0.9913793206214905
sg8
F0.0016222606677659683
ssS'pt:[40.0,50.0]'
p543
(dp544
g7
F0.9991632103919983
sg8
F0.00010620497279179958
ssS'pt:[50.0,60.0]'
p545
(dp546
g7
F0.9996442794799805
sg8
F0.0001879079521999704
sssS'abseta:[1.2,2.1]'
p547
(dp548
S'pt:[25.0,30.0]'
p549
(dp550
g7
F1.0021071434020996
sg8
F0.0006324457003186804
ssS'pt:[30.0,40.0]'
p551
(dp552
g7
F1.0011043548583984
sg8
F0.00023410308262556567
ssS'pt:[60.0,120.0]'
p553
(dp554
g7
F0.9996679425239563
sg8
F0.00028615512065183354
ssS'pt:[20.0,25.0]'
p555
(dp556
g7
F1.0005149841308594
sg8
F0.0010918273193089272
ssS'pt:[40.0,50.0]'
p557
(dp558
g7
F0.9996386170387268
sg8
F2.1124803760020863e-06
ssS'pt:[50.0,60.0]'
p559
(dp560
g7
F0.9997607469558716
sg8
F0.00018720637150756322
sssS'abseta:[2.1,2.4]'
p561
(dp562
S'pt:[25.0,30.0]'
p563
(dp564
g7
F1.0038812160491943
sg8
F0.0010619580291553695
ssS'pt:[30.0,40.0]'
p565
(dp566
g7
F1.0009872913360596
sg8
F0.00040359068030639325
ssS'pt:[60.0,120.0]'
p567
(dp568
g7
F1.000587821006775
sg8
F0.0007212942156597073
ssS'pt:[20.0,25.0]'
p569
(dp570
g7
F1.0006941556930542
sg8
F0.001856086725758255
ssS'pt:[40.0,50.0]'
p571
(dp572
g7
F1.0003851652145386
sg8
F0.00018349947871828837
ssS'pt:[50.0,60.0]'
p573
(dp574
g7
F0.9999281764030457
sg8
F0.0004407961862353725
sssS'abseta:[0.9,1.2]'
p575
(dp576
S'pt:[25.0,30.0]'
p577
(dp578
g7
F1.0003629922866821
sg8
F0.0014019958096358673
ssS'pt:[30.0,40.0]'
p579
(dp580
g7
F1.0004063844680786
sg8
F0.00042868453499942104
ssS'pt:[60.0,120.0]'
p581
(dp582
g7
F0.9999812841415405
sg8
F0.0004790572817542593
ssS'pt:[20.0,25.0]'
p583
(dp584
g7
F0.9983072876930237
sg8
F0.0024431368164970443
ssS'pt:[40.0,50.0]'
p585
(dp586
g7
F0.9995023608207703
sg8
F4.6450256237808135e-06
ssS'pt:[50.0,60.0]'
p587
(dp588
g7
F0.9995049238204956
sg8
F0.00033390183581508755
sssssS'TightISO_MediumID_eta'
p589
(dp590
S'eta_ratio'
p591
(dp592
S'eta:[-0.2,0.2]'
p593
(dp594
g7
F0.9939365983009338
sg8
F0.00041445058200073804
ssS'eta:[-2.4,-2.1]'
p595
(dp596
g7
F0.9988150596618652
sg8
F0.0005817056874567462
ssS'eta:[0.3,0.9]'
p597
(dp598
g7
F0.9976098537445068
sg8
F0.0003301239621623002
ssS'eta:[-0.9,-0.3]'
p599
(dp600
g7
F0.9966900944709778
sg8
F0.00033302861377133836
ssS'eta:[0.2,0.3]'
p601
(dp602
g7
F0.9942235350608826
sg8
F0.005555062874659272
ssS'eta:[0.9,1.2]'
p603
(dp604
g7
F0.9993481040000916
sg8
F0.0004755063932623613
ssS'eta:[-1.2,-0.9]'
p605
(dp606
g7
F0.9982313513755798
sg8
F0.0004756482558940874
ssS'eta:[2.1,2.4]'
p607
(dp608
g7
F0.9965834617614746
sg8
F0.0005693119079644236
ssS'eta:[-1.6,-1.2]'
p609
(dp610
g7
F0.9978333711624146
sg8
F0.0004023503964546986
ssS'eta:[1.2,1.6]'
p611
(dp612
g7
F0.9976403117179871
sg8
F0.0003949679663097004
ssS'eta:[-2.1,-1.6]'
p613
(dp614
g7
F0.9976578950881958
sg8
F0.00036681017630550234
ssS'eta:[-0.3,-0.2]'
p615
(dp616
g7
F0.9954156279563904
sg8
F0.0008406280321164003
ssS'eta:[1.6,2.1]'
p617
(dp618
g7
F0.9967811703681946
sg8
F0.0003586209047539553
ssssS'LooseISO_MediumID_pt_eta'
p619
(dp620
S'pt_abseta_ratio'
p621
(dp622
S'pt:[25.0,30.0]'
p623
(dp624
S'abseta:[0.0,0.9]'
p625
(dp626
g7
F0.9981657266616821
sg8
F0.0007967435442885818
ssS'abseta:[1.2,2.1]'
p627
(dp628
g7
F1.0021343231201172
sg8
F0.000635071664366709
ssS'abseta:[2.1,2.4]'
p629
(dp630
g7
F1.0036581754684448
sg8
F0.001069732524351175
ssS'abseta:[0.9,1.2]'
p631
(dp632
g7
F1.0004500150680542
sg8
F0.001403216685493987
sssS'pt:[30.0,40.0]'
p633
(dp634
S'abseta:[0.0,0.9]'
p635
(dp636
g7
F0.9985358715057373
sg8
F0.0002347709799361452
ssS'abseta:[1.2,2.1]'
p637
(dp638
g7
F1.0011175870895386
sg8
F0.0002332681683840161
ssS'abseta:[2.1,2.4]'
p639
(dp640
g7
F1.000933289527893
sg8
F0.0004059484132771812
ssS'abseta:[0.9,1.2]'
p641
(dp642
g7
F1.0004332065582275
sg8
F0.0004268146622143611
sssS'pt:[60.0,120.0]'
p643
(dp644
S'abseta:[0.0,0.9]'
p645
(dp646
g7
F0.9998422265052795
sg8
F0.00026484185210879117
ssS'abseta:[1.2,2.1]'
p647
(dp648
g7
F0.9997128844261169
sg8
F0.0002780670194982443
ssS'abseta:[2.1,2.4]'
p649
(dp650
g7
F1.0006239414215088
sg8
F0.0007311673502020709
ssS'abseta:[0.9,1.2]'
p651
(dp652
g7
F0.9999027252197266
sg8
F0.00046591929196113314
sssS'pt:[20.0,25.0]'
p653
(dp654
S'abseta:[0.0,0.9]'
p655
(dp656
g7
F0.9914466142654419
sg8
F0.0016132839176819915
ssS'abseta:[1.2,2.1]'
p657
(dp658
g7
F1.0005398988723755
sg8
F0.0010963209930557542
ssS'abseta:[2.1,2.4]'
p659
(dp660
g7
F1.00033438205719
sg8
F0.0018699865459320699
ssS'abseta:[0.9,1.2]'
p661
(dp662
g7
F0.9983258843421936
sg8
F0.0024331387314149946
sssS'pt:[40.0,50.0]'
p663
(dp664
S'abseta:[0.0,0.9]'
p665
(dp666
g7
F0.9991582632064819
sg8
F8.586657307214824e-05
ssS'abseta:[1.2,2.1]'
p667
(dp668
g7
F0.999687910079956
sg8
F9.589596580424561e-05
ssS'abseta:[2.1,2.4]'
p669
(dp670
g7
F1.0003777742385864
sg8
F6.9094698955936145e-06
ssS'abseta:[0.9,1.2]'
p671
(dp672
g7
F0.9995302557945251
sg8
F2.172168292483178e-06
sssS'pt:[50.0,60.0]'
p673
(dp674
S'abseta:[0.0,0.9]'
p675
(dp676
g7
F0.9996398687362671
sg8
F0.00018525135184376397
ssS'abseta:[1.2,2.1]'
p677
(dp678
g7
F0.9997851848602295
sg8
F0.00018236560550688856
ssS'abseta:[2.1,2.4]'
p679
(dp680
g7
F0.9997953176498413
sg8
F0.0004431537212201478
ssS'abseta:[0.9,1.2]'
p681
(dp682
g7
F0.9995586276054382
sg8
F0.0003197670463240913
ssssS'abseta_pt_ratio'
p683
(dp684
S'abseta:[0.0,0.9]'
p685
(dp686
S'pt:[25.0,30.0]'
p687
(dp688
g7
F0.9981657266616821
sg8
F0.0007967435442885818
ssS'pt:[30.0,40.0]'
p689
(dp690
g7
F0.9985358715057373
sg8
F0.0002347709799361452
ssS'pt:[60.0,120.0]'
p691
(dp692
g7
F0.9998422265052795
sg8
F0.00026484185210879117
ssS'pt:[20.0,25.0]'
p693
(dp694
g7
F0.9914466142654419
sg8
F0.0016132839176819915
ssS'pt:[40.0,50.0]'
p695
(dp696
g7
F0.9991582632064819
sg8
F8.586657307214824e-05
ssS'pt:[50.0,60.0]'
p697
(dp698
g7
F0.9996398687362671
sg8
F0.00018525135184376397
sssS'abseta:[1.2,2.1]'
p699
(dp700
S'pt:[25.0,30.0]'
p701
(dp702
g7
F1.0021343231201172
sg8
F0.000635071664366709
ssS'pt:[30.0,40.0]'
p703
(dp704
g7
F1.0011175870895386
sg8
F0.0002332681683840161
ssS'pt:[60.0,120.0]'
p705
(dp706
g7
F0.9997128844261169
sg8
F0.0002780670194982443
ssS'pt:[20.0,25.0]'
p707
(dp708
g7
F1.0005398988723755
sg8
F0.0010963209930557542
ssS'pt:[40.0,50.0]'
p709
(dp710
g7
F0.999687910079956
sg8
F9.589596580424561e-05
ssS'pt:[50.0,60.0]'
p711
(dp712
g7
F0.9997851848602295
sg8
F0.00018236560550688856
sssS'abseta:[2.1,2.4]'
p713
(dp714
S'pt:[25.0,30.0]'
p715
(dp716
g7
F1.0036581754684448
sg8
F0.001069732524351175
ssS'pt:[30.0,40.0]'
p717
(dp718
g7
F1.000933289527893
sg8
F0.0004059484132771812
ssS'pt:[60.0,120.0]'
p719
(dp720
g7
F1.0006239414215088
sg8
F0.0007311673502020709
ssS'pt:[20.0,25.0]'
p721
(dp722
g7
F1.00033438205719
sg8
F0.0018699865459320699
ssS'pt:[40.0,50.0]'
p723
(dp724
g7
F1.0003777742385864
sg8
F6.9094698955936145e-06
ssS'pt:[50.0,60.0]'
p725
(dp726
g7
F0.9997953176498413
sg8
F0.0004431537212201478
sssS'abseta:[0.9,1.2]'
p727
(dp728
S'pt:[25.0,30.0]'
p729
(dp730
g7
F1.0004500150680542
sg8
F0.001403216685493987
ssS'pt:[30.0,40.0]'
p731
(dp732
g7
F1.0004332065582275
sg8
F0.0004268146622143611
ssS'pt:[60.0,120.0]'
p733
(dp734
g7
F0.9999027252197266
sg8
F0.00046591929196113314
ssS'pt:[20.0,25.0]'
p735
(dp736
g7
F0.9983258843421936
sg8
F0.0024331387314149946
ssS'pt:[40.0,50.0]'
p737
(dp738
g7
F0.9995302557945251
sg8
F2.172168292483178e-06
ssS'pt:[50.0,60.0]'
p739
(dp740
g7
F0.9995586276054382
sg8
F0.0003197670463240913
sssssS'TightISO_MediumID_pt_eta'
p741
(dp742
S'pt_abseta_ratio'
p743
(dp744
S'pt:[25.0,30.0]'
p745
(dp746
S'abseta:[0.0,0.9]'
p747
(dp748
g7
F0.9921923279762268
sg8
F0.0012024006929884392
ssS'abseta:[1.2,2.1]'
p749
(dp750
g7
F0.9979779720306396
sg8
F0.0009960105595768064
ssS'abseta:[2.1,2.4]'
p751
(dp752
g7
F0.9986226558685303
sg8
F0.001736692682239341
ssS'abseta:[0.9,1.2]'
p753
(dp754
g7
F0.9998014569282532
sg8
F0.002067565523115195
sssS'pt:[30.0,40.0]'
p755
(dp756
S'abseta:[0.0,0.9]'
p757
(dp758
g7
F0.993381679058075
sg8
F0.0003908034070111398
ssS'abseta:[1.2,2.1]'
p759
(dp760
g7
F0.9989633560180664
sg8
F0.00037804431297153233
ssS'abseta:[2.1,2.4]'
p761
(dp762
g7
F0.9995474219322205
sg8
F0.0006903817700509207
ssS'abseta:[0.9,1.2]'
p763
(dp764
g7
F0.9993231892585754
sg8
F0.0006996444971879136
sssS'pt:[60.0,120.0]'
p765
(dp766
S'abseta:[0.0,0.9]'
p767
(dp768
g7
F0.9989543557167053
sg8
F0.00046848657316724603
ssS'abseta:[1.2,2.1]'
p769
(dp770
g7
F0.9993800520896912
sg8
F0.0004603689491514506
ssS'abseta:[2.1,2.4]'
p771
(dp772
g7
F1.0012935400009155
sg8
F0.0011277538196030733
ssS'abseta:[0.9,1.2]'
p773
(dp774
g7
F0.9989612102508545
sg8
F0.0007895861593841448
sssS'pt:[20.0,25.0]'
p775
(dp776
S'abseta:[0.0,0.9]'
p777
(dp778
g7
F0.9812811613082886
sg8
F0.0022513459281266446
ssS'abseta:[1.2,2.1]'
p779
(dp780
g7
F0.9936657547950745
sg8
F0.001666121427074105
ssS'abseta:[2.1,2.4]'
p781
(dp782
g7
F0.9934818744659424
sg8
F0.0028444697765145047
ssS'abseta:[0.9,1.2]'
p783
(dp784
g7
F0.9969138503074646
sg8
F0.0035235962839245483
sssS'pt:[40.0,50.0]'
p785
(dp786
S'abseta:[0.0,0.9]'
p787
(dp788
g7
F0.9951286315917969
sg8
F0.03258403811426556
ssS'abseta:[1.2,2.1]'
p789
(dp790
g7
F0.9985867738723755
sg8
F0.00011856672880873288
ssS'abseta:[2.1,2.4]'
p791
(dp792
g7
F1.0000532865524292
sg8
F0.0004399413888143281
ssS'abseta:[0.9,1.2]'
p793
(dp794
g7
F0.9981048107147217
sg8
F8.723383585821126e-06
sssS'pt:[50.0,60.0]'
p795
(dp796
S'abseta:[0.0,0.9]'
p797
(dp798
g7
F0.9966118335723877
sg8
F0.00036978249192603125
ssS'abseta:[1.2,2.1]'
p799
(dp800
g7
F0.9986562132835388
sg8
F0.0003394318742471994
ssS'abseta:[2.1,2.4]'
p801
(dp802
g7
F0.9996173977851868
sg8
F0.0007826111897709706
ssS'abseta:[0.9,1.2]'
p803
(dp804
g7
F0.998735785484314
sg8
F0.000609525627533129
ssssS'abseta_pt_ratio'
p805
(dp806
S'abseta:[0.0,0.9]'
p807
(dp808
S'pt:[25.0,30.0]'
p809
(dp810
g7
F0.9921923279762268
sg8
F0.0012024006929884392
ssS'pt:[30.0,40.0]'
p811
(dp812
g7
F0.993381679058075
sg8
F0.0003908034070111398
ssS'pt:[60.0,120.0]'
p813
(dp814
g7
F0.9989543557167053
sg8
F0.00046848657316724603
ssS'pt:[20.0,25.0]'
p815
(dp816
g7
F0.9812811613082886
sg8
F0.0022513459281266446
ssS'pt:[40.0,50.0]'
p817
(dp818
g7
F0.9951286315917969
sg8
F0.03258403811426556
ssS'pt:[50.0,60.0]'
p819
(dp820
g7
F0.9966118335723877
sg8
F0.00036978249192603125
sssS'abseta:[1.2,2.1]'
p821
(dp822
S'pt:[25.0,30.0]'
p823
(dp824
g7
F0.9979779720306396
sg8
F0.0009960105595768064
ssS'pt:[30.0,40.0]'
p825
(dp826
g7
F0.9989633560180664
sg8
F0.00037804431297153233
ssS'pt:[60.0,120.0]'
p827
(dp828
g7
F0.9993800520896912
sg8
F0.0004603689491514506
ssS'pt:[20.0,25.0]'
p829
(dp830
g7
F0.9936657547950745
sg8
F0.001666121427074105
ssS'pt:[40.0,50.0]'
p831
(dp832
g7
F0.9985867738723755
sg8
F0.00011856672880873288
ssS'pt:[50.0,60.0]'
p833
(dp834
g7
F0.9986562132835388
sg8
F0.0003394318742471994
sssS'abseta:[2.1,2.4]'
p835
(dp836
S'pt:[25.0,30.0]'
p837
(dp838
g7
F0.9986226558685303
sg8
F0.001736692682239341
ssS'pt:[30.0,40.0]'
p839
(dp840
g7
F0.9995474219322205
sg8
F0.0006903817700509207
ssS'pt:[60.0,120.0]'
p841
(dp842
g7
F1.0012935400009155
sg8
F0.0011277538196030733
ssS'pt:[20.0,25.0]'
p843
(dp844
g7
F0.9934818744659424
sg8
F0.0028444697765145047
ssS'pt:[40.0,50.0]'
p845
(dp846
g7
F1.0000532865524292
sg8
F0.0004399413888143281
ssS'pt:[50.0,60.0]'
p847
(dp848
g7
F0.9996173977851868
sg8
F0.0007826111897709706
sssS'abseta:[0.9,1.2]'
p849
(dp850
S'pt:[25.0,30.0]'
p851
(dp852
g7
F0.9998014569282532
sg8
F0.002067565523115195
ssS'pt:[30.0,40.0]'
p853
(dp854
g7
F0.9993231892585754
sg8
F0.0006996444971879136
ssS'pt:[60.0,120.0]'
p855
(dp856
g7
F0.9989612102508545
sg8
F0.0007895861593841448
ssS'pt:[20.0,25.0]'
p857
(dp858
g7
F0.9969138503074646
sg8
F0.0035235962839245483
ssS'pt:[40.0,50.0]'
p859
(dp860
g7
F0.9981048107147217
sg8
F8.723383585821126e-06
ssS'pt:[50.0,60.0]'
p861
(dp862
g7
F0.998735785484314
sg8
F0.000609525627533129
sssssS'LooseISO_MediumID_vtx'
p863
(dp864
S'tag_nVertices_ratio'
p865
(dp866
S'tag:[30.5,32.5]'
p867
(dp868
g7
F1.0003941059112549
sg8
F0.0006565606285459537
ssS'tag:[46.5,48.5]'
p869
(dp870
g7
F1.0023130178451538
sg8
F0.006718844885005526
ssS'tag:[28.5,30.5]'
p871
(dp872
g7
F1.0001730918884277
sg8
F0.0005386191952187341
ssS'tag:[44.5,46.5]'
p873
(dp874
g7
F0.9940125942230225
sg8
F0.005810146328739974
ssS'tag:[6.5,8.5]'
p875
(dp876
g7
F0.9995666146278381
sg8
F0.00041919154658181054
ssS'tag:[14.5,16.5]'
p877
(dp878
g7
F0.999521791934967
sg8
F0.00019962782397060848
ssS'tag:[50.5,52.5]'
p879
(dp880
g7
F1.0129262208938599
sg8
F0.014381280738632641
ssS'tag:[24.5,26.5]'
p881
(dp882
g7
F1.0001384019851685
sg8
F0.00034267591447889606
ssS'tag:[34.5,36.5]'
p883
(dp884
g7
F0.9995181560516357
sg8
F0.001133203353180695
ssS'tag:[8.5,10.5]'
p885
(dp886
g7
F0.9995560646057129
sg8
F0.0002926060451847965
ssS'tag:[18.5,20.5]'
p887
(dp888
g7
F0.999616265296936
sg8
F0.00022249419939958037
ssS'tag:[16.5,18.5]'
p889
(dp890
g7
F0.9998073577880859
sg8
F0.00020612996616839558
ssS'tag:[32.5,34.5]'
p891
(dp892
g7
F0.9997656345367432
sg8
F0.0008259144036645795
ssS'tag:[48.5,50.5]'
p893
(dp894
g7
F0.9999187588691711
sg8
F0.007681378254481838
ssS'tag:[22.5,24.5]'
p895
(dp896
g7
F1.000267744064331
sg8
F0.0002826354398457846
ssS'tag:[52.5,54.5]'
p897
(dp898
g7
F1.0072474479675293
sg8
F0.02813541712301662
ssS'tag:[42.5,44.5]'
p899
(dp900
g7
F1.0071628093719482
sg8
F0.0038505861470544845
ssS'tag:[38.5,40.5]'
p901
(dp902
g7
F1.0022103786468506
sg8
F0.0021032229450936597
ssS'tag:[2.5,4.5]'
p903
(dp904
g7
F0.9993353486061096
sg8
F0.0019534589335357985
ssS'tag:[12.5,14.5]'
p905
(dp906
g7
F0.999789834022522
sg8
F0.0002088363471688562
ssS'tag:[0.5,2.5]'
p907
(dp908
g7
F1.0069663524627686
sg8
F0.0038266163581802183
ssS'tag:[40.5,42.5]'
p909
(dp910
g7
F1.0002899169921875
sg8
F0.0028526893087503988
ssS'tag:[20.5,22.5]'
p911
(dp912
g7
F0.9998628497123718
sg8
F0.00024636776810440494
ssS'tag:[10.5,12.5]'
p913
(dp914
g7
F0.9998575448989868
sg8
F0.00023564810018208797
ssS'tag:[26.5,28.5]'
p915
(dp916
g7
F1.0000137090682983
sg8
F0.00040832963535291717
ssS'tag:[36.5,38.5]'
p917
(dp918
g7
F1.0005921125411987
sg8
F0.001552812966484331
ssS'tag:[4.5,6.5]'
p919
(dp920
g7
F0.9990499019622803
sg8
F0.0007094806943928329
ssssS'tkLooseISO_highptID_eta'
p921
(dp922
S'eta_ratio'
p923
(dp924
S'eta:[-0.2,0.2]'
p925
(dp926
g7
F0.9987961649894714
sg8
F0.00023824599521816886
ssS'eta:[-2.4,-2.1]'
p927
(dp928
g7
F0.999005138874054
sg8
F0.00035423684078037876
ssS'eta:[0.3,0.9]'
p929
(dp930
g7
F0.9988208413124084
sg8
F0.00020329574342371127
ssS'eta:[-0.9,-0.3]'
p931
(dp932
g7
F0.998888373374939
sg8
F0.0002043293857665432
ssS'eta:[0.2,0.3]'
p933
(dp934
g7
F0.9979274868965149
sg8
F0.0005131468529246768
ssS'eta:[0.9,1.2]'
p935
(dp936
g7
F0.9997676610946655
sg8
F0.00030498910583984023
ssS'eta:[-1.2,-0.9]'
p937
(dp938
g7
F0.9991464614868164
sg8
F0.00030069344502468327
ssS'eta:[2.1,2.4]'
p939
(dp940
g7
F1.0005779266357422
sg8
F0.0003463114746578322
ssS'eta:[-1.6,-1.2]'
p941
(dp942
g7
F0.9990269541740417
sg8
F0.00027211837913955917
ssS'eta:[1.2,1.6]'
p943
(dp944
g7
F0.9995253086090088
sg8
F0.00026594671161815864
ssS'eta:[-2.1,-1.6]'
p945
(dp946
g7
F0.9993270635604858
sg8
F0.00025986712529723607
ssS'eta:[-0.3,-0.2]'
p947
(dp948
g7
F0.998756468296051
sg8
F0.000502079438700141
ssS'eta:[1.6,2.1]'
p949
(dp950
g7
F0.9994980096817017
sg8
F0.00025714894640447986
ssssS'tkLooseISO_highptID_vtx'
p951
(dp952
S'tag_nVertices_ratio'
p953
(dp954
S'tag:[30.5,32.5]'
p955
(dp956
g7
F0.9981217980384827
sg8
F0.000733475205000685
ssS'tag:[46.5,48.5]'
p957
(dp958
g7
F0.9938905835151672
sg8
F0.011142816921091788
ssS'tag:[28.5,30.5]'
p959
(dp960
g7
F0.9975703954696655
sg8
F0.0005683288005453115
ssS'tag:[44.5,46.5]'
p961
(dp962
g7
F0.9798790812492371
sg8
F0.00875791454493889
ssS'tag:[6.5,8.5]'
p963
(dp964
g7
F0.9998443126678467
sg8
F0.00042683257569900467
ssS'tag:[14.5,16.5]'
p965
(dp966
g7
F0.998978853225708
sg8
F0.00020725310270908366
ssS'tag:[50.5,52.5]'
p967
(dp968
g7
F0.9998706579208374
sg8
F0.015356652249466111
ssS'tag:[24.5,26.5]'
p969
(dp970
g7
F0.998187780380249
sg8
F0.00036784105534218026
ssS'tag:[34.5,36.5]'
p971
(dp972
g7
F0.997546911239624
sg8
F0.0012797178261629728
ssS'tag:[8.5,10.5]'
p973
(dp974
g7
F0.9995918869972229
sg8
F0.0003043614252435081
ssS'tag:[18.5,20.5]'
p975
(dp976
g7
F0.998837411403656
sg8
F0.00023172780045345887
ssS'tag:[16.5,18.5]'
p977
(dp978
g7
F0.9991755485534668
sg8
F0.00021557402220712381
ssS'tag:[32.5,34.5]'
p979
(dp980
g7
F0.9981428384780884
sg8
F0.0009646212470615625
ssS'tag:[48.5,50.5]'
p981
(dp982
g7
F1.000576376914978
sg8
F0.017533838321550307
ssS'tag:[22.5,24.5]'
p983
(dp984
g7
F0.9986960887908936
sg8
F0.00030249266387187784
ssS'tag:[52.5,54.5]'
p985
(dp986
g7
F0.9882615208625793
sg8
F0.022501012884209307
ssS'tag:[42.5,44.5]'
p987
(dp988
g7
F0.9954532384872437
sg8
F0.004994906488122339
ssS'tag:[38.5,40.5]'
p989
(dp990
g7
F0.9966571927070618
sg8
F0.0026265482272085075
ssS'tag:[2.5,4.5]'
p991
(dp992
g7
F0.9996669888496399
sg8
F0.0016858923010761723
ssS'tag:[12.5,14.5]'
p993
(dp994
g7
F0.9991525411605835
sg8
F0.0002181232051389931
ssS'tag:[0.5,2.5]'
p995
(dp996
g7
F1.0013971328735352
sg8
F0.0039966937696345305
ssS'tag:[40.5,42.5]'
p997
(dp998
g7
F0.9979440569877625
sg8
F0.003658551809066711
ssS'tag:[20.5,22.5]'
p999
(dp1000
g7
F0.9987370371818542
sg8
F0.0002591254125937231
ssS'tag:[10.5,12.5]'
p1001
(dp1002
g7
F0.9997754693031311
sg8
F0.00024359412104186682
ssS'tag:[26.5,28.5]'
p1003
(dp1004
g7
F0.9977962970733643
sg8
F0.0004430914029300145
ssS'tag:[36.5,38.5]'
p1005
(dp1006
g7
F0.9960388541221619
sg8
F0.0017526037662855042
ssS'tag:[4.5,6.5]'
p1007
(dp1008
g7
F0.9993982911109924
sg8
F0.0007281347324753975
ssssS'TightISO_TightID_pt'
p1009
(dp1010
S'pt_ratio'
p1011
(dp1012
S'pt:[25.0,30.0]'
p1013
(dp1014
g7
F0.9977884292602539
sg8
F0.0006899186790671688
ssS'pt:[30.0,40.0]'
p1015
(dp1016
g7
F0.9967129826545715
sg8
F0.0002464000136454033
ssS'pt:[60.0,120.0]'
p1017
(dp1018
g7
F0.9991111755371094
sg8
F0.00029982182009315856
ssS'pt:[120.0,200.0]'
p1019
(dp1020
g7
F1.0022202730178833
sg8
F0.0017801085042596957
ssS'pt:[20.0,25.0]'
p1021
(dp1022
g7
F0.9929983615875244
sg8
F0.0011850203905583773
ssS'pt:[40.0,50.0]'
p1023
(dp1024
g7
F0.9966785311698914
sg8
F0.0001369932695086009
ssS'pt:[50.0,60.0]'
p1025
(dp1026
g7
F0.9975579977035522
sg8
F0.00023128341623347319
ssssS'TightISO_MediumID_pt'
p1027
(dp1028
S'pt_ratio'
p1029
(dp1030
S'pt:[25.0,30.0]'
p1031
(dp1032
g7
F0.9974148273468018
sg8
F0.0006836770496302953
ssS'pt:[30.0,40.0]'
p1033
(dp1034
g7
F0.9965559244155884
sg8
F0.00024455906853716204
ssS'pt:[60.0,120.0]'
p1035
(dp1036
g7
F0.9990239143371582
sg8
F0.00029865356017310697
ssS'pt:[120.0,200.0]'
p1037
(dp1038
g7
F1.003073811531067
sg8
F0.0018077984444065472
ssS'pt:[20.0,25.0]'
p1039
(dp1040
g7
F0.9927501678466797
sg8
F0.0011766663281540936
ssS'pt:[40.0,50.0]'
p1041
(dp1042
g7
F0.9965709447860718
sg8
F8.088976988331304e-05
ssS'pt:[50.0,60.0]'
p1043
(dp1044
g7
F0.997410237789154
sg8
F0.00022981735795739278
ssssS'LooseISO_TightID_pt_eta'
p1045
(dp1046
S'pt_abseta_ratio'
p1047
(dp1048
S'pt:[25.0,30.0]'
p1049
(dp1050
S'abseta:[0.0,0.9]'
p1051
(dp1052
g7
F0.9982629418373108
sg8
F0.0008081777647739432
ssS'abseta:[1.2,2.1]'
p1053
(dp1054
g7
F1.0020796060562134
sg8
F0.0006375320699811914
ssS'abseta:[2.1,2.4]'
p1055
(dp1056
g7
F1.0039862394332886
sg8
F0.001073941100280797
ssS'abseta:[0.9,1.2]'
p1057
(dp1058
g7
F1.0004571676254272
sg8
F0.0014105532302683935
sssS'pt:[30.0,40.0]'
p1059
(dp1060
S'abseta:[0.0,0.9]'
p1061
(dp1062
g7
F0.9986215829849243
sg8
F0.00023734616579572992
ssS'abseta:[1.2,2.1]'
p1063
(dp1064
g7
F1.0010749101638794
sg8
F0.00023517101923598217
ssS'abseta:[2.1,2.4]'
p1065
(dp1066
g7
F1.0011547803878784
sg8
F0.00040749562469695927
ssS'abseta:[0.9,1.2]'
p1067
(dp1068
g7
F1.0006163120269775
sg8
F0.0004280352908003009
sssS'pt:[60.0,120.0]'
p1069
(dp1070
S'abseta:[0.0,0.9]'
p1071
(dp1072
g7
F0.999930202960968
sg8
F0.00026690517649810677
ssS'abseta:[1.2,2.1]'
p1073
(dp1074
g7
F0.9997161626815796
sg8
F0.0002772125205597105
ssS'abseta:[2.1,2.4]'
p1075
(dp1076
g7
F1.0006691217422485
sg8
F0.0007174646196272187
ssS'abseta:[0.9,1.2]'
p1077
(dp1078
g7
F0.9998900890350342
sg8
F0.00046880915460423414
sssS'pt:[20.0,25.0]'
p1079
(dp1080
S'abseta:[0.0,0.9]'
p1081
(dp1082
g7
F0.9916565418243408
sg8
F0.00164026821599567
ssS'abseta:[1.2,2.1]'
p1083
(dp1084
g7
F1.000487208366394
sg8
F0.0011072437915704647
ssS'abseta:[2.1,2.4]'
p1085
(dp1086
g7
F1.00067138671875
sg8
F0.0018720716287458973
ssS'abseta:[0.9,1.2]'
p1087
(dp1088
g7
F0.9985840320587158
sg8
F0.0024258362392006096
sssS'pt:[40.0,50.0]'
p1089
(dp1090
S'abseta:[0.0,0.9]'
p1091
(dp1092
g7
F0.9991568922996521
sg8
F0.00010635923020226968
ssS'abseta:[1.2,2.1]'
p1093
(dp1094
g7
F0.9997041821479797
sg8
F5.6519941739043056e-05
ssS'abseta:[2.1,2.4]'
p1095
(dp1096
g7
F1.0004130601882935
sg8
F0.00012577494253253414
ssS'abseta:[0.9,1.2]'
p1097
(dp1098
g7
F0.9996734857559204
sg8
F0.004733460620403487
sssS'pt:[50.0,60.0]'
p1099
(dp1100
S'abseta:[0.0,0.9]'
p1101
(dp1102
g7
F0.9996662735939026
sg8
F0.00018744226587090002
ssS'abseta:[1.2,2.1]'
p1103
(dp1104
g7
F0.9998529553413391
sg8
F0.0001810962787312532
ssS'abseta:[2.1,2.4]'
p1105
(dp1106
g7
F0.9999348521232605
sg8
F0.0004440390621511162
ssS'abseta:[0.9,1.2]'
p1107
(dp1108
g7
F0.9996834397315979
sg8
F0.00032106298176422173
ssssS'abseta_pt_ratio'
p1109
(dp1110
S'abseta:[0.0,0.9]'
p1111
(dp1112
S'pt:[25.0,30.0]'
p1113
(dp1114
g7
F0.9982629418373108
sg8
F0.0008081777647739432
ssS'pt:[30.0,40.0]'
p1115
(dp1116
g7
F0.9986215829849243
sg8
F0.00023734616579572992
ssS'pt:[60.0,120.0]'
p1117
(dp1118
g7
F0.999930202960968
sg8
F0.00026690517649810677
ssS'pt:[20.0,25.0]'
p1119
(dp1120
g7
F0.9916565418243408
sg8
F0.00164026821599567
ssS'pt:[40.0,50.0]'
p1121
(dp1122
g7
F0.9991568922996521
sg8
F0.00010635923020226968
ssS'pt:[50.0,60.0]'
p1123
(dp1124
g7
F0.9996662735939026
sg8
F0.00018744226587090002
sssS'abseta:[1.2,2.1]'
p1125
(dp1126
S'pt:[25.0,30.0]'
p1127
(dp1128
g7
F1.0020796060562134
sg8
F0.0006375320699811914
ssS'pt:[30.0,40.0]'
p1129
(dp1130
g7
F1.0010749101638794
sg8
F0.00023517101923598217
ssS'pt:[60.0,120.0]'
p1131
(dp1132
g7
F0.9997161626815796
sg8
F0.0002772125205597105
ssS'pt:[20.0,25.0]'
p1133
(dp1134
g7
F1.000487208366394
sg8
F0.0011072437915704647
ssS'pt:[40.0,50.0]'
p1135
(dp1136
g7
F0.9997041821479797
sg8
F5.6519941739043056e-05
ssS'pt:[50.0,60.0]'
p1137
(dp1138
g7
F0.9998529553413391
sg8
F0.0001810962787312532
sssS'abseta:[2.1,2.4]'
p1139
(dp1140
S'pt:[25.0,30.0]'
p1141
(dp1142
g7
F1.0039862394332886
sg8
F0.001073941100280797
ssS'pt:[30.0,40.0]'
p1143
(dp1144
g7
F1.0011547803878784
sg8
F0.00040749562469695927
ssS'pt:[60.0,120.0]'
p1145
(dp1146
g7
F1.0006691217422485
sg8
F0.0007174646196272187
ssS'pt:[20.0,25.0]'
p1147
(dp1148
g7
F1.00067138671875
sg8
F0.0018720716287458973
ssS'pt:[40.0,50.0]'
p1149
(dp1150
g7
F1.0004130601882935
sg8
F0.00012577494253253414
ssS'pt:[50.0,60.0]'
p1151
(dp1152
g7
F0.9999348521232605
sg8
F0.0004440390621511162
sssS'abseta:[0.9,1.2]'
p1153
(dp1154
S'pt:[25.0,30.0]'
p1155
(dp1156
g7
F1.0004571676254272
sg8
F0.0014105532302683935
ssS'pt:[30.0,40.0]'
p1157
(dp1158
g7
F1.0006163120269775
sg8
F0.0004280352908003009
ssS'pt:[60.0,120.0]'
p1159
(dp1160
g7
F0.9998900890350342
sg8
F0.00046880915460423414
ssS'pt:[20.0,25.0]'
p1161
(dp1162
g7
F0.9985840320587158
sg8
F0.0024258362392006096
ssS'pt:[40.0,50.0]'
p1163
(dp1164
g7
F0.9996734857559204
sg8
F0.004733460620403487
ssS'pt:[50.0,60.0]'
p1165
(dp1166
g7
F0.9996834397315979
sg8
F0.00032106298176422173
sssssS'LooseISO_TightID_eta'
p1167
(dp1168
S'eta_ratio'
p1169
(dp1170
S'eta:[-0.2,0.2]'
p1171
(dp1172
g7
F0.9990014433860779
sg8
F0.0002476979717082774
ssS'eta:[-2.4,-2.1]'
p1173
(dp1174
g7
F1.000663161277771
sg8
F0.00035461663249640793
ssS'eta:[0.3,0.9]'
p1175
(dp1176
g7
F1.0000842809677124
sg8
F0.00019719296238878193
ssS'eta:[-0.9,-0.3]'
p1177
(dp1178
g7
F1.000109314918518
sg8
F0.0002007685656451677
ssS'eta:[0.2,0.3]'
p1179
(dp1180
g7
F0.9995479583740234
sg8
F0.0005313134237543218
ssS'eta:[0.9,1.2]'
p1181
(dp1182
g7
F1.000393271446228
sg8
F0.0002909806662863346
ssS'eta:[-1.2,-0.9]'
p1183
(dp1184
g7
F0.9999948143959045
sg8
F0.00028473460488931906
ssS'eta:[2.1,2.4]'
p1185
(dp1186
g7
F1.0004215240478516
sg8
F0.00034537213981267325
ssS'eta:[-1.6,-1.2]'
p1187
(dp1188
g7
F0.999893844127655
sg8
F0.0002432938348853396
ssS'eta:[1.2,1.6]'
p1189
(dp1190
g7
F1.0002872943878174
sg8
F0.00023739166226747574
ssS'eta:[-2.1,-1.6]'
p1191
(dp1192
g7
F1.0001368522644043
sg8
F0.0002266312142632466
ssS'eta:[-0.3,-0.2]'
p1193
(dp1194
g7
F0.9996082782745361
sg8
F0.016739671070436397
ssS'eta:[1.6,2.1]'
p1195
(dp1196
g7
F0.999872624874115
sg8
F0.0002181061635542325
ssssS'LooseISO_LooseID_pt'
p1197
(dp1198
S'pt_ratio'
p1199
(dp1200
S'pt:[25.0,30.0]'
p1201
(dp1202
g7
F1.0007884502410889
sg8
F0.0004612628361942881
ssS'pt:[30.0,40.0]'
p1203
(dp1204
g7
F0.9997689723968506
sg8
F0.00014942925704784812
ssS'pt:[60.0,120.0]'
p1205
(dp1206
g7
F0.999817430973053
sg8
F0.00017610462203906536
ssS'pt:[120.0,200.0]'
p1207
(dp1208
g7
F1.0025526285171509
sg8
F0.0011070402891339567
ssS'pt:[20.0,25.0]'
p1209
(dp1210
g7
F0.9989991188049316
sg8
F0.000820833729450446
ssS'pt:[40.0,50.0]'
p1211
(dp1212
g7
F0.9993625283241272
sg8
F1.4949983876372316e-06
ssS'pt:[50.0,60.0]'
p1213
(dp1214
g7
F0.9996177554130554
sg8
F0.00012045633210603629
ssssS'TightISO_TightID_vtx'
p1215
(dp1216
S'tag_nVertices_ratio'
p1217
(dp1218
S'tag:[30.5,32.5]'
p1219
(dp1220
g7
F0.9985423684120178
sg8
F0.0011359051112980907
ssS'tag:[46.5,48.5]'
p1221
(dp1222
g7
F0.9706291556358337
sg8
F0.016178084252740116
ssS'tag:[28.5,30.5]'
p1223
(dp1224
g7
F0.999234139919281
sg8
F0.0008904922710564939
ssS'tag:[44.5,46.5]'
p1225
(dp1226
g7
F0.9892005324363708
sg8
F0.010157078202668023
ssS'tag:[6.5,8.5]'
p1227
(dp1228
g7
F0.9965934157371521
sg8
F0.0006782578810343723
ssS'tag:[14.5,16.5]'
p1229
(dp1230
g7
F0.9964039921760559
sg8
F0.0003338671223238267
ssS'tag:[50.5,52.5]'
p1231
(dp1232
g7
F1.0188204050064087
sg8
F0.01958758399202438
ssS'tag:[24.5,26.5]'
p1233
(dp1234
g7
F0.9971002340316772
sg8
F0.0005772257171832107
ssS'tag:[34.5,36.5]'
p1235
(dp1236
g7
F0.9995980858802795
sg8
F0.0019457127537022686
ssS'tag:[8.5,10.5]'
p1237
(dp1238
g7
F0.9967665076255798
sg8
F0.00047789951100696716
ssS'tag:[18.5,20.5]'
p1239
(dp1240
g7
F0.9965874552726746
sg8
F0.00037133443058038007
ssS'tag:[16.5,18.5]'
p1241
(dp1242
g7
F0.9966632723808289
sg8
F0.0003449532564465028
ssS'tag:[32.5,34.5]'
p1243
(dp1244
g7
F0.9984616041183472
sg8
F0.0014814304914913612
ssS'tag:[48.5,50.5]'
p1245
(dp1246
g7
F0.9876589179039001
sg8
F0.020353681477017632
ssS'tag:[22.5,24.5]'
p1247
(dp1248
g7
F0.9972288012504578
sg8
F0.0004824958389904468
ssS'tag:[52.5,54.5]'
p1249
(dp1250
g7
F0.9894284009933472
sg8
F0.031748521498498106
ssS'tag:[42.5,44.5]'
p1251
(dp1252
g7
F1.0068511962890625
sg8
F0.006733960807820941
ssS'tag:[38.5,40.5]'
p1253
(dp1254
g7
F1.000787377357483
sg8
F0.0038171268775629204
ssS'tag:[2.5,4.5]'
p1255
(dp1256
g7
F0.9971906542778015
sg8
F0.002554647789116064
ssS'tag:[12.5,14.5]'
p1257
(dp1258
g7
F0.9963533878326416
sg8
F0.0003490790956930834
ssS'tag:[0.5,2.5]'
p1259
(dp1260
g7
F1.008126974105835
sg8
F0.005988998737467113
ssS'tag:[40.5,42.5]'
p1261
(dp1262
g7
F0.9989185929298401
sg8
F0.005306636280913152
ssS'tag:[20.5,22.5]'
p1263
(dp1264
g7
F0.9968520402908325
sg8
F0.00041415552574617905
ssS'tag:[10.5,12.5]'
p1265
(dp1266
g7
F0.9962239265441895
sg8
F0.00038853904718906567
ssS'tag:[26.5,28.5]'
p1267
(dp1268
g7
F0.9972898364067078
sg8
F0.0007050287137628997
ssS'tag:[36.5,38.5]'
p1269
(dp1270
g7
F0.997052013874054
sg8
F0.0026930940113070916
ssS'tag:[4.5,6.5]'
p1271
(dp1272
g7
F0.9966112375259399
sg8
F0.0011483591745544443
ssssS'LooseISO_LooseID_eta'
p1273
(dp1274
S'eta_ratio'
p1275
(dp1276
S'eta:[-0.2,0.2]'
p1277
(dp1278
g7
F0.9990241527557373
sg8
F0.0002468532254066992
ssS'eta:[-2.4,-2.1]'
p1279
(dp1280
g7
F1.0005130767822266
sg8
F0.000351076690283906
ssS'eta:[0.3,0.9]'
p1281
(dp1282
g7
F1.0000789165496826
sg8
F0.00019680729209423353
ssS'eta:[-0.9,-0.3]'
p1283
(dp1284
g7
F1.00010085105896
sg8
F0.00020016355700524068
ssS'eta:[0.2,0.3]'
p1285
(dp1286
g7
F0.999082088470459
sg8
F0.0005031966079614239
ssS'eta:[0.9,1.2]'
p1287
(dp1288
g7
F1.0002120733261108
sg8
F0.00028996130316198427
ssS'eta:[-1.2,-0.9]'
p1289
(dp1290
g7
F0.9998646378517151
sg8
F0.00028464604339830334
ssS'eta:[2.1,2.4]'
p1291
(dp1292
g7
F1.0003942251205444
sg8
F0.00034323204445373015
ssS'eta:[-1.6,-1.2]'
p1293
(dp1294
g7
F0.9998791813850403
sg8
F0.0002449032494329565
ssS'eta:[1.2,1.6]'
p1295
(dp1296
g7
F1.000266671180725
sg8
F0.00023824235634536316
ssS'eta:[-2.1,-1.6]'
p1297
(dp1298
g7
F1.000091552734375
sg8
F0.00022535516004527274
ssS'eta:[-0.3,-0.2]'
p1299
(dp1300
g7
F0.9996726512908936
sg8
F0.0004917712884639585
ssS'eta:[1.6,2.1]'
p1301
(dp1302
g7
F0.9998422861099243
sg8
F0.00021834055569878297
ssssS'TightISO_TightID_eta'
p1303
(dp1304
S'eta_ratio'
p1305
(dp1306
S'eta:[-0.2,0.2]'
p1307
(dp1308
g7
F0.9938574433326721
sg8
F0.0004181708198001112
ssS'eta:[-2.4,-2.1]'
p1309
(dp1310
g7
F0.9992505311965942
sg8
F0.0005841790835062166
ssS'eta:[0.3,0.9]'
p1311
(dp1312
g7
F0.9976673126220703
sg8
F0.0003325121568793157
ssS'eta:[-0.9,-0.3]'
p1313
(dp1314
g7
F0.9967265129089355
sg8
F0.00033570458122230784
ssS'eta:[0.2,0.3]'
p1315
(dp1316
g7
F0.9949147701263428
sg8
F0.000880295357220495
ssS'eta:[0.9,1.2]'
p1317
(dp1318
g7
F0.9995483160018921
sg8
F0.0004795050304340456
ssS'eta:[-1.2,-0.9]'
p1319
(dp1320
g7
F0.9984137415885925
sg8
F0.0004781715350892968
ssS'eta:[2.1,2.4]'
p1321
(dp1322
g7
F0.9969292283058167
sg8
F0.0005684126167827428
ssS'eta:[-1.6,-1.2]'
p1323
(dp1324
g7
F0.997839093208313
sg8
F0.0004031257321214357
ssS'eta:[1.2,1.6]'
p1325
(dp1326
g7
F0.9976881146430969
sg8
F0.0003951376827435612
ssS'eta:[-2.1,-1.6]'
p1327
(dp1328
g7
F0.9977423548698425
sg8
F0.00036903272895353337
ssS'eta:[-0.3,-0.2]'
p1329
(dp1330
g7
F0.9960590600967407
sg8
F0.0008847637198745227
ssS'eta:[1.6,2.1]'
p1331
(dp1332
g7
F0.9968321919441223
sg8
F0.00036174633752328344
ssssS'LooseISO_LooseID_vtx'
p1333
(dp1334
S'tag_nVertices_ratio'
p1335
(dp1336
S'tag:[30.5,32.5]'
p1337
(dp1338
g7
F1.0004791021347046
sg8
F0.0006593836431778357
ssS'tag:[46.5,48.5]'
p1339
(dp1340
g7
F1.002166509628296
sg8
F0.006720151879890536
ssS'tag:[28.5,30.5]'
p1341
(dp1342
g7
F1.0002329349517822
sg8
F0.000540696294155211
ssS'tag:[44.5,46.5]'
p1343
(dp1344
g7
F0.9930774569511414
sg8
F0.005925100027947528
ssS'tag:[6.5,8.5]'
p1345
(dp1346
g7
F0.9995101094245911
sg8
F0.000421845615008633
ssS'tag:[14.5,16.5]'
p1347
(dp1348
g7
F0.9995397925376892
sg8
F0.00020037767069345207
ssS'tag:[50.5,52.5]'
p1349
(dp1350
g7
F1.0122685432434082
sg8
F0.014237005705098489
ssS'tag:[24.5,26.5]'
p1351
(dp1352
g7
F1.000060796737671
sg8
F0.00034304190131294934
ssS'tag:[34.5,36.5]'
p1353
(dp1354
g7
F0.9995404481887817
sg8
F0.001140627678612007
ssS'tag:[8.5,10.5]'
p1355
(dp1356
g7
F0.9995724558830261
sg8
F0.0002933050131240992
ssS'tag:[18.5,20.5]'
p1357
(dp1358
g7
F0.9996551275253296
sg8
F0.0002243089883726837
ssS'tag:[16.5,18.5]'
p1359
(dp1360
g7
F0.999768853187561
sg8
F0.00020660035869963044
ssS'tag:[32.5,34.5]'
p1361
(dp1362
g7
F0.9998854398727417
sg8
F0.000828248207020203
ssS'tag:[48.5,50.5]'
p1363
(dp1364
g7
F1.000061273574829
sg8
F0.00754308523999972
ssS'tag:[22.5,24.5]'
p1365
(dp1366
g7
F1.0003095865249634
sg8
F0.00028407131569975654
ssS'tag:[52.5,54.5]'
p1367
(dp1368
g7
F1.0073356628417969
sg8
F0.027719532860158852
ssS'tag:[42.5,44.5]'
p1369
(dp1370
g7
F1.0075023174285889
sg8
F0.0038940682366579733
ssS'tag:[38.5,40.5]'
p1371
(dp1372
g7
F1.002524733543396
sg8
F0.002114032393365765
ssS'tag:[2.5,4.5]'
p1373
(dp1374
g7
F0.9989573359489441
sg8
F0.0019287776807472826
ssS'tag:[12.5,14.5]'
p1375
(dp1376
g7
F0.9997779726982117
sg8
F0.0002090834678633937
ssS'tag:[0.5,2.5]'
p1377
(dp1378
g7
F1.006906270980835
sg8
F0.0038336776213080993
ssS'tag:[40.5,42.5]'
p1379
(dp1380
g7
F1.0003820657730103
sg8
F0.002813388013305667
ssS'tag:[20.5,22.5]'
p1381
(dp1382
g7
F0.9998432993888855
sg8
F0.00024754687975344237
ssS'tag:[10.5,12.5]'
p1383
(dp1384
g7
F0.9999273419380188
sg8
F0.00023682037335254156
ssS'tag:[26.5,28.5]'
p1385
(dp1386
g7
F1.0000137090682983
sg8
F0.00040850650091555485
ssS'tag:[36.5,38.5]'
p1387
(dp1388
g7
F1.0007282495498657
sg8
F0.0015478167064413354
ssS'tag:[4.5,6.5]'
p1389
(dp1390
g7
F0.9991713166236877
sg8
F0.0007121485374179894
ssss.