(dp0
S'MC_NUM_LooseRelIso_DEN_MediumID_PAR_eta'
p1
(dp2
S'eta_ratio'
p3
(dp4
S'eta:[-0.2,0.2]'
p5
(dp6
S'value'
p7
F0.9998858571052551
sS'error'
p8
F0.0004962130863541499
ssS'eta:[-2.4,-2.1]'
p9
(dp10
g7
F1.0001287460327148
sg8
F0.0007540241430144382
ssS'eta:[0.3,0.9]'
p11
(dp12
g7
F1.0006529092788696
sg8
F0.00039466114229343873
ssS'eta:[-0.9,-0.3]'
p13
(dp14
g7
F1.0012531280517578
sg8
F0.0003985783294780888
ssS'eta:[0.2,0.3]'
p15
(dp16
g7
F1.0003008842468262
sg8
F0.0010016648244239995
ssS'eta:[0.9,1.2]'
p17
(dp18
g7
F0.999940812587738
sg8
F0.0005582780957767338
ssS'eta:[-1.2,-0.9]'
p19
(dp20
g7
F1.0010879039764404
sg8
F0.0005672584247584662
ssS'eta:[2.1,2.4]'
p21
(dp22
g7
F0.9996594190597534
sg8
F0.0007034564065839345
ssS'eta:[-1.6,-1.2]'
p23
(dp24
g7
F1.0008713006973267
sg8
F0.00048307244407547065
ssS'eta:[1.2,1.6]'
p25
(dp26
g7
F1.0014368295669556
sg8
F0.00047969015959722564
ssS'eta:[-2.1,-1.6]'
p27
(dp28
g7
F1.0004431009292603
sg8
F0.000459723859277184
ssS'eta:[-0.3,-0.2]'
p29
(dp30
g7
F1.000224232673645
sg8
F0.0009581277556396006
ssS'eta:[1.6,2.1]'
p31
(dp32
g7
F1.000717282295227
sg8
F0.0004363436517325559
ssssS'MC_NUM_LooseRelIso_DEN_LooseID_PAR_pt_alleta_bin1'
p33
(dp34
S'pt_ratio'
p35
(dp36
S'pt:[25.0,30.0]'
p37
(dp38
g7
F0.9999110698699951
sg8
F0.0008413276159153607
ssS'pt:[30.0,40.0]'
p39
(dp40
g7
F1.0012240409851074
sg8
F0.00030010887592958027
ssS'pt:[80.0,120.0]'
p41
(dp42
g7
F1.0002304315567017
sg8
F0.0007231328817619058
ssS'pt:[120.0,200.0]'
p43
(dp44
g7
F1.004423975944519
sg8
F0.002413590241446857
ssS'pt:[60.0,80.0]'
p45
(dp46
g7
F0.9996607899665833
sg8
F0.0003880215341832097
ssS'pt:[20.0,25.0]'
p47
(dp48
g7
F1.0032747983932495
sg8
F0.0013413383869546884
ssS'pt:[40.0,50.0]'
p49
(dp50
g7
F0.9995996952056885
sg8
F2.5886834093908317e-06
ssS'pt:[50.0,60.0]'
p51
(dp52
g7
F1.0001938343048096
sg8
F0.000276929316696761
ssssS'MC_NUM_LooseRelIso_DEN_MediumID_PAR_pt_spliteta_bin1'
p53
(dp54
S'pt_abseta_ratio'
p55
(dp56
S'pt:[25.0,30.0]'
p57
(dp58
S'abseta:[0.0,0.9]'
p59
(dp60
g7
F0.9980035424232483
sg8
F0.001406588942579836
ssS'abseta:[1.2,2.1]'
p61
(dp62
g7
F1.0023174285888672
sg8
F0.001224699198603688
ssS'abseta:[2.1,2.4]'
p63
(dp64
g7
F0.9993178248405457
sg8
F0.0021873841040232584
ssS'abseta:[0.9,1.2]'
p65
(dp66
g7
F0.9998752474784851
sg8
F0.0025356626018202795
sssS'pt:[30.0,40.0]'
p67
(dp68
S'abseta:[0.0,0.9]'
p69
(dp70
g7
F1.0009796619415283
sg8
F0.00046044476758946384
ssS'abseta:[1.2,2.1]'
p71
(dp72
g7
F1.0021826028823853
sg8
F0.00048759319435363814
ssS'abseta:[2.1,2.4]'
p73
(dp74
g7
F0.9991260766983032
sg8
F0.0008899790312245956
ssS'abseta:[0.9,1.2]'
p75
(dp76
g7
F1.0008994340896606
sg8
F0.0008311260106639781
sssS'pt:[60.0,120.0]'
p77
(dp78
S'abseta:[0.0,0.9]'
p79
(dp80
g7
F0.9992914199829102
sg8
F0.0005408084703003954
ssS'abseta:[1.2,2.1]'
p81
(dp82
g7
F1.0005830526351929
sg8
F0.0005541846208904796
ssS'abseta:[2.1,2.4]'
p83
(dp84
g7
F1.0011274814605713
sg8
F0.0013688258809985002
ssS'abseta:[0.9,1.2]'
p85
(dp86
g7
F1.0001208782196045
sg8
F0.0009257479572844646
sssS'pt:[20.0,25.0]'
p87
(dp88
S'abseta:[0.0,0.9]'
p89
(dp90
g7
F1.0041351318359375
sg8
F0.0025996471129359003
ssS'abseta:[1.2,2.1]'
p91
(dp92
g7
F1.0000102519989014
sg8
F0.0019693147117827337
ssS'abseta:[2.1,2.4]'
p93
(dp94
g7
F1.006288766860962
sg8
F0.0033786861282014227
ssS'abseta:[0.9,1.2]'
p95
(dp96
g7
F1.005020022392273
sg8
F0.0037989722428150297
sssS'pt:[40.0,50.0]'
p97
(dp98
S'abseta:[0.0,0.9]'
p99
(dp100
g7
F0.9995384812355042
sg8
F0.005305548754024503
ssS'abseta:[1.2,2.1]'
p101
(dp102
g7
F1.0000001192092896
sg8
F0.00019253566083178526
ssS'abseta:[2.1,2.4]'
p103
(dp104
g7
F0.9994651675224304
sg8
F0.00031082629647580874
ssS'abseta:[0.9,1.2]'
p105
(dp106
g7
F0.9993934035301208
sg8
F0.000343364057631275
sssS'pt:[50.0,60.0]'
p107
(dp108
S'abseta:[0.0,0.9]'
p109
(dp110
g7
F1.0001778602600098
sg8
F0.0003851095703639416
ssS'abseta:[1.2,2.1]'
p111
(dp112
g7
F0.9999756813049316
sg8
F0.00036052019004608534
ssS'abseta:[2.1,2.4]'
p113
(dp114
g7
F1.0000871419906616
sg8
F0.0007617939545623826
ssS'abseta:[0.9,1.2]'
p115
(dp116
g7
F0.9996746778488159
sg8
F0.0007288319306884151
ssssS'abseta_pt_ratio'
p117
(dp118
S'abseta:[0.0,0.9]'
p119
(dp120
S'pt:[25.0,30.0]'
p121
(dp122
g7
F0.9980035424232483
sg8
F0.001406588942579836
ssS'pt:[30.0,40.0]'
p123
(dp124
g7
F1.0009796619415283
sg8
F0.00046044476758946384
ssS'pt:[60.0,120.0]'
p125
(dp126
g7
F0.9992914199829102
sg8
F0.0005408084703003954
ssS'pt:[20.0,25.0]'
p127
(dp128
g7
F1.0041351318359375
sg8
F0.0025996471129359003
ssS'pt:[40.0,50.0]'
p129
(dp130
g7
F0.9995384812355042
sg8
F0.005305548754024503
ssS'pt:[50.0,60.0]'
p131
(dp132
g7
F1.0001778602600098
sg8
F0.0003851095703639416
sssS'abseta:[1.2,2.1]'
p133
(dp134
S'pt:[25.0,30.0]'
p135
(dp136
g7
F1.0023174285888672
sg8
F0.001224699198603688
ssS'pt:[30.0,40.0]'
p137
(dp138
g7
F1.0021826028823853
sg8
F0.00048759319435363814
ssS'pt:[60.0,120.0]'
p139
(dp140
g7
F1.0005830526351929
sg8
F0.0005541846208904796
ssS'pt:[20.0,25.0]'
p141
(dp142
g7
F1.0000102519989014
sg8
F0.0019693147117827337
ssS'pt:[40.0,50.0]'
p143
(dp144
g7
F1.0000001192092896
sg8
F0.00019253566083178526
ssS'pt:[50.0,60.0]'
p145
(dp146
g7
F0.9999756813049316
sg8
F0.00036052019004608534
sssS'abseta:[2.1,2.4]'
p147
(dp148
S'pt:[25.0,30.0]'
p149
(dp150
g7
F0.9993178248405457
sg8
F0.0021873841040232584
ssS'pt:[30.0,40.0]'
p151
(dp152
g7
F0.9991260766983032
sg8
F0.0008899790312245956
ssS'pt:[60.0,120.0]'
p153
(dp154
g7
F1.0011274814605713
sg8
F0.0013688258809985002
ssS'pt:[20.0,25.0]'
p155
(dp156
g7
F1.006288766860962
sg8
F0.0033786861282014227
ssS'pt:[40.0,50.0]'
p157
(dp158
g7
F0.9994651675224304
sg8
F0.00031082629647580874
ssS'pt:[50.0,60.0]'
p159
(dp160
g7
F1.0000871419906616
sg8
F0.0007617939545623826
sssS'abseta:[0.9,1.2]'
p161
(dp162
S'pt:[25.0,30.0]'
p163
(dp164
g7
F0.9998752474784851
sg8
F0.0025356626018202795
ssS'pt:[30.0,40.0]'
p165
(dp166
g7
F1.0008994340896606
sg8
F0.0008311260106639781
ssS'pt:[60.0,120.0]'
p167
(dp168
g7
F1.0001208782196045
sg8
F0.0009257479572844646
ssS'pt:[20.0,25.0]'
p169
(dp170
g7
F1.005020022392273
sg8
F0.0037989722428150297
ssS'pt:[40.0,50.0]'
p171
(dp172
g7
F0.9993934035301208
sg8
F0.000343364057631275
ssS'pt:[50.0,60.0]'
p173
(dp174
g7
F0.9996746778488159
sg8
F0.0007288319306884151
sssssS'MC_NUM_TightRelIso_DEN_MediumID_PAR_pt_alleta_bin1'
p175
(dp176
S'pt_ratio'
p177
(dp178
S'pt:[25.0,30.0]'
p179
(dp180
g7
F0.9986681938171387
sg8
F0.0012524583798588975
ssS'pt:[30.0,40.0]'
p181
(dp182
g7
F1.000142216682434
sg8
F0.0004876065776482194
ssS'pt:[80.0,120.0]'
p183
(dp184
g7
F1.0000723600387573
sg8
F0.0011242368893900163
ssS'pt:[120.0,200.0]'
p185
(dp186
g7
F1.0042827129364014
sg8
F0.003100684214866693
ssS'pt:[60.0,80.0]'
p187
(dp188
g7
F0.9999901056289673
sg8
F0.0006464545392678583
ssS'pt:[20.0,25.0]'
p189
(dp190
g7
F0.998569667339325
sg8
F0.0019733102976115767
ssS'pt:[40.0,50.0]'
p191
(dp192
g7
F0.9988520741462708
sg8
F0.00026561670707662895
ssS'pt:[50.0,60.0]'
p193
(dp194
g7
F0.9990032315254211
sg8
F0.0004471949548923775
ssssS'MC_NUM_LooseRelIso_DEN_TightID_PAR_pt_spliteta_bin1'
p195
(dp196
S'pt_abseta_ratio'
p197
(dp198
S'pt:[25.0,30.0]'
p199
(dp200
S'abseta:[0.0,0.9]'
p201
(dp202
g7
F0.997709333896637
sg8
F0.0014224552969826206
ssS'abseta:[1.2,2.1]'
p203
(dp204
g7
F1.002049207687378
sg8
F0.0012327816336009448
ssS'abseta:[2.1,2.4]'
p205
(dp206
g7
F0.9987349510192871
sg8
F0.002179913754436593
ssS'abseta:[0.9,1.2]'
p207
(dp208
g7
F0.9995625615119934
sg8
F0.0025311806281839164
sssS'pt:[30.0,40.0]'
p209
(dp210
S'abseta:[0.0,0.9]'
p211
(dp212
g7
F1.0008777379989624
sg8
F0.000468622784628607
ssS'abseta:[1.2,2.1]'
p213
(dp214
g7
F1.0021681785583496
sg8
F0.0004896777122608903
ssS'abseta:[2.1,2.4]'
p215
(dp216
g7
F0.9995703101158142
sg8
F0.0008825368094119351
ssS'abseta:[0.9,1.2]'
p217
(dp218
g7
F1.001188039779663
sg8
F0.0008305893252389607
sssS'pt:[60.0,120.0]'
p219
(dp220
S'abseta:[0.0,0.9]'
p221
(dp222
g7
F0.9995414018630981
sg8
F0.0005594059805960726
ssS'abseta:[1.2,2.1]'
p223
(dp224
g7
F1.0004149675369263
sg8
F0.0005484999887099343
ssS'abseta:[2.1,2.4]'
p225
(dp226
g7
F1.0010684728622437
sg8
F0.0013368135149419277
ssS'abseta:[0.9,1.2]'
p227
(dp228
g7
F1.0004717111587524
sg8
F0.000928193040031223
sssS'pt:[20.0,25.0]'
p229
(dp230
S'abseta:[0.0,0.9]'
p231
(dp232
g7
F1.0036321878433228
sg8
F0.0026278880405174137
ssS'abseta:[1.2,2.1]'
p233
(dp234
g7
F0.9998138546943665
sg8
F0.0019956156445865097
ssS'abseta:[2.1,2.4]'
p235
(dp236
g7
F1.0062004327774048
sg8
F0.003325006473512011
ssS'abseta:[0.9,1.2]'
p237
(dp238
g7
F1.003816843032837
sg8
F0.003758533770856337
sssS'pt:[40.0,50.0]'
p239
(dp240
S'abseta:[0.0,0.9]'
p241
(dp242
g7
F0.9995428323745728
sg8
F0.0001586685146041269
ssS'abseta:[1.2,2.1]'
p243
(dp244
g7
F1.0000582933425903
sg8
F0.003031349021863748
ssS'abseta:[2.1,2.4]'
p245
(dp246
g7
F0.9995814561843872
sg8
F0.00043849748315501896
ssS'abseta:[0.9,1.2]'
p247
(dp248
g7
F0.9994024634361267
sg8
F0.0003353291238416316
sssS'pt:[50.0,60.0]'
p249
(dp250
S'abseta:[0.0,0.9]'
p251
(dp252
g7
F1.0002658367156982
sg8
F0.00038712621168903393
ssS'abseta:[1.2,2.1]'
p253
(dp254
g7
F1.0000662803649902
sg8
F0.00035988928581800816
ssS'abseta:[2.1,2.4]'
p255
(dp256
g7
F1.0003741979599
sg8
F0.0007553717727315738
ssS'abseta:[0.9,1.2]'
p257
(dp258
g7
F0.9998143315315247
sg8
F0.0007181156468733319
ssssS'abseta_pt_ratio'
p259
(dp260
S'abseta:[0.0,0.9]'
p261
(dp262
S'pt:[25.0,30.0]'
p263
(dp264
g7
F0.997709333896637
sg8
F0.0014224552969826206
ssS'pt:[30.0,40.0]'
p265
(dp266
g7
F1.0008777379989624
sg8
F0.000468622784628607
ssS'pt:[60.0,120.0]'
p267
(dp268
g7
F0.9995414018630981
sg8
F0.0005594059805960726
ssS'pt:[20.0,25.0]'
p269
(dp270
g7
F1.0036321878433228
sg8
F0.0026278880405174137
ssS'pt:[40.0,50.0]'
p271
(dp272
g7
F0.9995428323745728
sg8
F0.0001586685146041269
ssS'pt:[50.0,60.0]'
p273
(dp274
g7
F1.0002658367156982
sg8
F0.00038712621168903393
sssS'abseta:[1.2,2.1]'
p275
(dp276
S'pt:[25.0,30.0]'
p277
(dp278
g7
F1.002049207687378
sg8
F0.0012327816336009448
ssS'pt:[30.0,40.0]'
p279
(dp280
g7
F1.0021681785583496
sg8
F0.0004896777122608903
ssS'pt:[60.0,120.0]'
p281
(dp282
g7
F1.0004149675369263
sg8
F0.0005484999887099343
ssS'pt:[20.0,25.0]'
p283
(dp284
g7
F0.9998138546943665
sg8
F0.0019956156445865097
ssS'pt:[40.0,50.0]'
p285
(dp286
g7
F1.0000582933425903
sg8
F0.003031349021863748
ssS'pt:[50.0,60.0]'
p287
(dp288
g7
F1.0000662803649902
sg8
F0.00035988928581800816
sssS'abseta:[2.1,2.4]'
p289
(dp290
S'pt:[25.0,30.0]'
p291
(dp292
g7
F0.9987349510192871
sg8
F0.002179913754436593
ssS'pt:[30.0,40.0]'
p293
(dp294
g7
F0.9995703101158142
sg8
F0.0008825368094119351
ssS'pt:[60.0,120.0]'
p295
(dp296
g7
F1.0010684728622437
sg8
F0.0013368135149419277
ssS'pt:[20.0,25.0]'
p297
(dp298
g7
F1.0062004327774048
sg8
F0.003325006473512011
ssS'pt:[40.0,50.0]'
p299
(dp300
g7
F0.9995814561843872
sg8
F0.00043849748315501896
ssS'pt:[50.0,60.0]'
p301
(dp302
g7
F1.0003741979599
sg8
F0.0007553717727315738
sssS'abseta:[0.9,1.2]'
p303
(dp304
S'pt:[25.0,30.0]'
p305
(dp306
g7
F0.9995625615119934
sg8
F0.0025311806281839164
ssS'pt:[30.0,40.0]'
p307
(dp308
g7
F1.001188039779663
sg8
F0.0008305893252389607
ssS'pt:[60.0,120.0]'
p309
(dp310
g7
F1.0004717111587524
sg8
F0.000928193040031223
ssS'pt:[20.0,25.0]'
p311
(dp312
g7
F1.003816843032837
sg8
F0.003758533770856337
ssS'pt:[40.0,50.0]'
p313
(dp314
g7
F0.9994024634361267
sg8
F0.0003353291238416316
ssS'pt:[50.0,60.0]'
p315
(dp316
g7
F0.9998143315315247
sg8
F0.0007181156468733319
sssssS'MC_NUM_LooseRelIso_DEN_MediumID_PAR_pt_alleta_bin1'
p317
(dp318
S'pt_ratio'
p319
(dp320
S'pt:[25.0,30.0]'
p321
(dp322
g7
F0.9999550580978394
sg8
F0.00084167852546925
ssS'pt:[30.0,40.0]'
p323
(dp324
g7
F1.0011508464813232
sg8
F0.0003002042794748896
ssS'pt:[80.0,120.0]'
p325
(dp326
g7
F1.0002007484436035
sg8
F0.0007201775858471873
ssS'pt:[120.0,200.0]'
p327
(dp328
g7
F1.004014492034912
sg8
F0.002329456028582987
ssS'pt:[60.0,80.0]'
p329
(dp330
g7
F0.9996939301490784
sg8
F0.0003800086414272082
ssS'pt:[20.0,25.0]'
p331
(dp332
g7
F1.0029898881912231
sg8
F0.0013520081715750868
ssS'pt:[40.0,50.0]'
p333
(dp334
g7
F0.9996398687362671
sg8
F8.680901545730373e-05
ssS'pt:[50.0,60.0]'
p335
(dp336
g7
F1.0001164674758911
sg8
F0.0002762065958846105
ssssS'MC_NUM_LooseRelIso_DEN_TightID_PAR_pt_alleta_bin1'
p337
(dp338
S'pt_ratio'
p339
(dp340
S'pt:[25.0,30.0]'
p341
(dp342
g7
F0.999671220779419
sg8
F0.0008457748006870831
ssS'pt:[30.0,40.0]'
p343
(dp344
g7
F1.0011802911758423
sg8
F0.00030240714805357074
ssS'pt:[80.0,120.0]'
p345
(dp346
g7
F1.0003373622894287
sg8
F0.0007289598821641084
ssS'pt:[120.0,200.0]'
p347
(dp348
g7
F1.0039739608764648
sg8
F0.0021589978236599182
ssS'pt:[60.0,80.0]'
p349
(dp350
g7
F0.9997955560684204
sg8
F0.0003768655987911085
ssS'pt:[20.0,25.0]'
p351
(dp352
g7
F1.0026694536209106
sg8
F0.001356904955444655
ssS'pt:[40.0,50.0]'
p353
(dp354
g7
F0.9996712803840637
sg8
F3.0142472780431445e-06
ssS'pt:[50.0,60.0]'
p355
(dp356
g7
F1.0002318620681763
sg8
F0.0002754717156236792
ssssS'MC_NUM_TightRelIso_DEN_TightID_PAR_eta'
p357
(dp358
S'eta_ratio'
p359
(dp360
S'eta:[-0.2,0.2]'
p361
(dp362
g7
F0.9996779561042786
sg8
F0.0008203612680896525
ssS'eta:[-2.4,-2.1]'
p363
(dp364
g7
F0.9982348084449768
sg8
F0.0011830783619321932
ssS'eta:[0.3,0.9]'
p365
(dp366
g7
F0.9996165037155151
sg8
F0.0006525431023226289
ssS'eta:[-0.9,-0.3]'
p367
(dp368
g7
F1.000683307647705
sg8
F0.0006636798909894592
ssS'eta:[0.2,0.3]'
p369
(dp370
g7
F0.9973958134651184
sg8
F0.001728623656387892
ssS'eta:[0.9,1.2]'
p371
(dp372
g7
F0.9995627403259277
sg8
F0.0009413040179842263
ssS'eta:[-1.2,-0.9]'
p373
(dp374
g7
F1.0013933181762695
sg8
F0.0009346971670051448
ssS'eta:[2.1,2.4]'
p375
(dp376
g7
F0.9960024952888489
sg8
F0.0011565857613961218
ssS'eta:[-1.6,-1.2]'
p377
(dp378
g7
F1.0001362562179565
sg8
F0.000799233964575754
ssS'eta:[1.2,1.6]'
p379
(dp380
g7
F0.9999510049819946
sg8
F0.0007916245377209347
ssS'eta:[-2.1,-1.6]'
p381
(dp382
g7
F0.9990770220756531
sg8
F0.0007549440916026067
ssS'eta:[-0.3,-0.2]'
p383
(dp384
g7
F1.0002851486206055
sg8
F0.0016907648912892256
ssS'eta:[1.6,2.1]'
p385
(dp386
g7
F0.9982781410217285
sg8
F0.000738565521141578
ssssS'MC_NUM_LooseRelIso_DEN_LooseID_PAR_eta'
p387
(dp388
S'eta_ratio'
p389
(dp390
S'eta:[-0.2,0.2]'
p391
(dp392
g7
F0.9999828934669495
sg8
F0.000493539856058523
ssS'eta:[-2.4,-2.1]'
p393
(dp394
g7
F1.0002280473709106
sg8
F0.0007440941745440667
ssS'eta:[0.3,0.9]'
p395
(dp396
g7
F1.0006710290908813
sg8
F0.00039760792859965926
ssS'eta:[-0.9,-0.3]'
p397
(dp398
g7
F1.001330852508545
sg8
F0.00040102744229745174
ssS'eta:[0.2,0.3]'
p399
(dp400
g7
F1.0005038976669312
sg8
F0.0010069154303176927
ssS'eta:[0.9,1.2]'
p401
(dp402
g7
F0.9998736381530762
sg8
F0.0005606131262154103
ssS'eta:[-1.2,-0.9]'
p403
(dp404
g7
F1.0010967254638672
sg8
F0.0005709261972959396
ssS'eta:[2.1,2.4]'
p405
(dp406
g7
F0.9997301697731018
sg8
F0.0006904538053100685
ssS'eta:[-1.6,-1.2]'
p407
(dp408
g7
F1.0009009838104248
sg8
F0.0004838255336232307
ssS'eta:[1.2,1.6]'
p409
(dp410
g7
F1.0013775825500488
sg8
F0.00048219462510272764
ssS'eta:[-2.1,-1.6]'
p411
(dp412
g7
F1.0005213022232056
sg8
F0.0004615570722278725
ssS'eta:[-0.3,-0.2]'
p413
(dp414
g7
F1.00029718875885
sg8
F0.0009528835226569154
ssS'eta:[1.6,2.1]'
p415
(dp416
g7
F1.0007524490356445
sg8
F0.0004376350816311924
ssssS'MC_NUM_LooseRelIso_DEN_TightID_PAR_eta'
p417
(dp418
S'eta_ratio'
p419
(dp420
S'eta:[-0.2,0.2]'
p421
(dp422
g7
F0.9999668598175049
sg8
F0.0004955205508846568
ssS'eta:[-2.4,-2.1]'
p423
(dp424
g7
F1.000135898590088
sg8
F0.0007481309567562816
ssS'eta:[0.3,0.9]'
p425
(dp426
g7
F1.0005626678466797
sg8
F0.00039713768848594863
ssS'eta:[-0.9,-0.3]'
p427
(dp428
g7
F1.0012482404708862
sg8
F0.00040080043468014646
ssS'eta:[0.2,0.3]'
p429
(dp430
g7
F0.9997941255569458
sg8
F0.0010675807395732631
ssS'eta:[0.9,1.2]'
p431
(dp432
g7
F0.9999755024909973
sg8
F0.0005625393855969656
ssS'eta:[-1.2,-0.9]'
p433
(dp434
g7
F1.0011115074157715
sg8
F0.00056726401662128
ssS'eta:[2.1,2.4]'
p435
(dp436
g7
F0.9997783303260803
sg8
F0.0007014867298472647
ssS'eta:[-1.6,-1.2]'
p437
(dp438
g7
F1.0008156299591064
sg8
F0.0004805313588162771
ssS'eta:[1.2,1.6]'
p439
(dp440
g7
F1.0014528036117554
sg8
F0.00048002481014385094
ssS'eta:[-2.1,-1.6]'
p441
(dp442
g7
F1.0004373788833618
sg8
F0.00046717291357082106
ssS'eta:[-0.3,-0.2]'
p443
(dp444
g7
F1.0002942085266113
sg8
F0.0010051495634142832
ssS'eta:[1.6,2.1]'
p445
(dp446
g7
F1.0006688833236694
sg8
F0.0004399611272384452
ssssS'MC_NUM_TightRelIso_DEN_MediumID_PAR_eta'
p447
(dp448
S'eta_ratio'
p449
(dp450
S'eta:[-0.2,0.2]'
p451
(dp452
g7
F0.9996502995491028
sg8
F0.0008175849799030077
ssS'eta:[-2.4,-2.1]'
p453
(dp454
g7
F0.9984251260757446
sg8
F0.0011883479369895148
ssS'eta:[0.3,0.9]'
p455
(dp456
g7
F0.9996734261512756
sg8
F0.000648723879118857
ssS'eta:[-0.9,-0.3]'
p457
(dp458
g7
F1.0006742477416992
sg8
F0.0006597384517284174
ssS'eta:[0.2,0.3]'
p459
(dp460
g7
F0.9987248778343201
sg8
F0.0016420532293403057
ssS'eta:[0.9,1.2]'
p461
(dp462
g7
F0.9995654821395874
sg8
F0.0009331110710208213
ssS'eta:[-1.2,-0.9]'
p463
(dp464
g7
F1.0012952089309692
sg8
F0.0009303514788544483
ssS'eta:[2.1,2.4]'
p465
(dp466
g7
F0.995698094367981
sg8
F0.0011629307353486671
ssS'eta:[-1.6,-1.2]'
p467
(dp468
g7
F1.0002329349517822
sg8
F0.0007999534784851835
ssS'eta:[1.2,1.6]'
p469
(dp470
g7
F0.999877393245697
sg8
F0.0007910086908040309
ssS'eta:[-2.1,-1.6]'
p471
(dp472
g7
F0.9991691708564758
sg8
F0.0007503839890553168
ssS'eta:[-0.3,-0.2]'
p473
(dp474
g7
F0.9997885227203369
sg8
F0.0016160670717036173
ssS'eta:[1.6,2.1]'
p475
(dp476
g7
F0.9983816742897034
sg8
F0.0007352765042389846
ssssS'MC_NUM_LooseRelIso_DEN_LooseID_PAR_pt_spliteta_bin1'
p477
(dp478
S'pt_abseta_ratio'
p479
(dp480
S'pt:[25.0,30.0]'
p481
(dp482
S'abseta:[0.0,0.9]'
p483
(dp484
g7
F0.9979327321052551
sg8
F0.001412609181948799
ssS'abseta:[1.2,2.1]'
p485
(dp486
g7
F1.0023834705352783
sg8
F0.0012232725929581052
ssS'abseta:[2.1,2.4]'
p487
(dp488
g7
F0.99886554479599
sg8
F0.0021535637943579365
ssS'abseta:[0.9,1.2]'
p489
(dp490
g7
F0.9997036457061768
sg8
F0.0025210703747561023
sssS'pt:[30.0,40.0]'
p491
(dp492
S'abseta:[0.0,0.9]'
p493
(dp494
g7
F1.0010147094726562
sg8
F0.000463330321068612
ssS'abseta:[1.2,2.1]'
p495
(dp496
g7
F1.0021909475326538
sg8
F0.00048642881204771223
ssS'abseta:[2.1,2.4]'
p497
(dp498
g7
F0.9994577169418335
sg8
F0.0008724660579088904
ssS'abseta:[0.9,1.2]'
p499
(dp500
g7
F1.0010594129562378
sg8
F0.000832805532421481
sssS'pt:[60.0,120.0]'
p501
(dp502
S'abseta:[0.0,0.9]'
p503
(dp504
g7
F0.9993091225624084
sg8
F0.000549398759952802
ssS'abseta:[1.2,2.1]'
p505
(dp506
g7
F1.0005407333374023
sg8
F0.0005688292963943979
ssS'abseta:[2.1,2.4]'
p507
(dp508
g7
F1.0013047456741333
sg8
F0.0013279813678869605
ssS'abseta:[0.9,1.2]'
p509
(dp510
g7
F1.000076413154602
sg8
F0.0009493256942307721
sssS'pt:[20.0,25.0]'
p511
(dp512
S'abseta:[0.0,0.9]'
p513
(dp514
g7
F1.004233479499817
sg8
F0.0026023538028202902
ssS'abseta:[1.2,2.1]'
p515
(dp516
g7
F1.0005570650100708
sg8
F0.001893181781897299
ssS'abseta:[2.1,2.4]'
p517
(dp518
g7
F1.0060187578201294
sg8
F0.003335703664214795
ssS'abseta:[0.9,1.2]'
p519
(dp520
g7
F1.005143404006958
sg8
F0.003739868434155919
sssS'pt:[40.0,50.0]'
p521
(dp522
S'abseta:[0.0,0.9]'
p523
(dp524
g7
F0.9995732307434082
sg8
F0.0001409804161261494
ssS'abseta:[1.2,2.1]'
p525
(dp526
g7
F0.9999563097953796
sg8
F0.00019780012874426754
ssS'abseta:[2.1,2.4]'
p527
(dp528
g7
F0.9994901418685913
sg8
F0.0003081308987779988
ssS'abseta:[0.9,1.2]'
p529
(dp530
g7
F0.9992360472679138
sg8
F0.004293387124429973
sssS'pt:[50.0,60.0]'
p531
(dp532
S'abseta:[0.0,0.9]'
p533
(dp534
g7
F1.0003036260604858
sg8
F0.000392374698952315
ssS'abseta:[1.2,2.1]'
p535
(dp536
g7
F0.9999071955680847
sg8
F0.00037224697080706144
ssS'abseta:[2.1,2.4]'
p537
(dp538
g7
F1.0001996755599976
sg8
F0.000770514129970232
ssS'abseta:[0.9,1.2]'
p539
(dp540
g7
F0.9997040033340454
sg8
F0.0007374278505949486
ssssS'abseta_pt_ratio'
p541
(dp542
S'abseta:[0.0,0.9]'
p543
(dp544
S'pt:[25.0,30.0]'
p545
(dp546
g7
F0.9979327321052551
sg8
F0.001412609181948799
ssS'pt:[30.0,40.0]'
p547
(dp548
g7
F1.0010147094726562
sg8
F0.000463330321068612
ssS'pt:[60.0,120.0]'
p549
(dp550
g7
F0.9993091225624084
sg8
F0.000549398759952802
ssS'pt:[20.0,25.0]'
p551
(dp552
g7
F1.004233479499817
sg8
F0.0026023538028202902
ssS'pt:[40.0,50.0]'
p553
(dp554
g7
F0.9995732307434082
sg8
F0.0001409804161261494
ssS'pt:[50.0,60.0]'
p555
(dp556
g7
F1.0003036260604858
sg8
F0.000392374698952315
sssS'abseta:[1.2,2.1]'
p557
(dp558
S'pt:[25.0,30.0]'
p559
(dp560
g7
F1.0023834705352783
sg8
F0.0012232725929581052
ssS'pt:[30.0,40.0]'
p561
(dp562
g7
F1.0021909475326538
sg8
F0.00048642881204771223
ssS'pt:[60.0,120.0]'
p563
(dp564
g7
F1.0005407333374023
sg8
F0.0005688292963943979
ssS'pt:[20.0,25.0]'
p565
(dp566
g7
F1.0005570650100708
sg8
F0.001893181781897299
ssS'pt:[40.0,50.0]'
p567
(dp568
g7
F0.9999563097953796
sg8
F0.00019780012874426754
ssS'pt:[50.0,60.0]'
p569
(dp570
g7
F0.9999071955680847
sg8
F0.00037224697080706144
sssS'abseta:[2.1,2.4]'
p571
(dp572
S'pt:[25.0,30.0]'
p573
(dp574
g7
F0.99886554479599
sg8
F0.0021535637943579365
ssS'pt:[30.0,40.0]'
p575
(dp576
g7
F0.9994577169418335
sg8
F0.0008724660579088904
ssS'pt:[60.0,120.0]'
p577
(dp578
g7
F1.0013047456741333
sg8
F0.0013279813678869605
ssS'pt:[20.0,25.0]'
p579
(dp580
g7
F1.0060187578201294
sg8
F0.003335703664214795
ssS'pt:[40.0,50.0]'
p581
(dp582
g7
F0.9994901418685913
sg8
F0.0003081308987779988
ssS'pt:[50.0,60.0]'
p583
(dp584
g7
F1.0001996755599976
sg8
F0.000770514129970232
sssS'abseta:[0.9,1.2]'
p585
(dp586
S'pt:[25.0,30.0]'
p587
(dp588
g7
F0.9997036457061768
sg8
F0.0025210703747561023
ssS'pt:[30.0,40.0]'
p589
(dp590
g7
F1.0010594129562378
sg8
F0.000832805532421481
ssS'pt:[60.0,120.0]'
p591
(dp592
g7
F1.000076413154602
sg8
F0.0009493256942307721
ssS'pt:[20.0,25.0]'
p593
(dp594
g7
F1.005143404006958
sg8
F0.003739868434155919
ssS'pt:[40.0,50.0]'
p595
(dp596
g7
F0.9992360472679138
sg8
F0.004293387124429973
ssS'pt:[50.0,60.0]'
p597
(dp598
g7
F0.9997040033340454
sg8
F0.0007374278505949486
sssssS'MC_NUM_TightRelIso_DEN_TightID_PAR_pt_spliteta_bin1'
p599
(dp600
S'pt_abseta_ratio'
p601
(dp602
S'pt:[25.0,30.0]'
p603
(dp604
S'abseta:[0.0,0.9]'
p605
(dp606
g7
F0.9972719550132751
sg8
F0.0021407495797563397
ssS'abseta:[1.2,2.1]'
p607
(dp608
g7
F1.0008577108383179
sg8
F0.0018883013420904475
ssS'abseta:[2.1,2.4]'
p609
(dp610
g7
F0.9953659176826477
sg8
F0.0033906839265062053
ssS'abseta:[0.9,1.2]'
p611
(dp612
g7
F0.9945319294929504
sg8
F0.0037844778555734863
sssS'pt:[30.0,40.0]'
p613
(dp614
S'abseta:[0.0,0.9]'
p615
(dp616
g7
F1.0000364780426025
sg8
F0.0007651987260104043
ssS'abseta:[1.2,2.1]'
p617
(dp618
g7
F1.0010744333267212
sg8
F0.0007870718006215067
ssS'abseta:[2.1,2.4]'
p619
(dp620
g7
F0.9976503252983093
sg8
F0.0014728084424716716
ssS'abseta:[0.9,1.2]'
p621
(dp622
g7
F1.0003032684326172
sg8
F0.0013958479376580918
sssS'pt:[60.0,120.0]'
p623
(dp624
S'abseta:[0.0,0.9]'
p625
(dp626
g7
F0.9997790455818176
sg8
F0.000875229090068117
ssS'abseta:[1.2,2.1]'
p627
(dp628
g7
F1.0012601613998413
sg8
F0.0009152809216634893
ssS'abseta:[2.1,2.4]'
p629
(dp630
g7
F0.9990492463111877
sg8
F0.0021163911439328934
ssS'abseta:[0.9,1.2]'
p631
(dp632
g7
F1.0006041526794434
sg8
F0.0014970535826952613
sssS'pt:[20.0,25.0]'
p633
(dp634
S'abseta:[0.0,0.9]'
p635
(dp636
g7
F0.9999233484268188
sg8
F0.0037479534197887524
ssS'abseta:[1.2,2.1]'
p637
(dp638
g7
F0.9937877655029297
sg8
F0.0028509427249494585
ssS'abseta:[2.1,2.4]'
p639
(dp640
g7
F0.9926856160163879
sg8
F0.00516003666294503
ssS'abseta:[0.9,1.2]'
p641
(dp642
g7
F1.006879210472107
sg8
F0.005793381883923882
sssS'pt:[40.0,50.0]'
p643
(dp644
S'abseta:[0.0,0.9]'
p645
(dp646
g7
F0.9984670281410217
sg8
F0.00043016348430872215
ssS'abseta:[1.2,2.1]'
p647
(dp648
g7
F0.9990620613098145
sg8
F0.0002641645915440564
ssS'abseta:[2.1,2.4]'
p649
(dp650
g7
F0.9994420409202576
sg8
F0.000621728163404163
ssS'abseta:[0.9,1.2]'
p651
(dp652
g7
F0.9998740553855896
sg8
F0.0005371465939230162
sssS'pt:[50.0,60.0]'
p653
(dp654
S'abseta:[0.0,0.9]'
p655
(dp656
g7
F0.9985744953155518
sg8
F0.0007305130588312294
ssS'abseta:[1.2,2.1]'
p657
(dp658
g7
F0.9991379380226135
sg8
F0.0006780297796297373
ssS'abseta:[2.1,2.4]'
p659
(dp660
g7
F1.0009126663208008
sg8
F0.001480885463336233
ssS'abseta:[0.9,1.2]'
p661
(dp662
g7
F1.0013928413391113
sg8
F0.0012294358093290422
ssssS'abseta_pt_ratio'
p663
(dp664
S'abseta:[0.0,0.9]'
p665
(dp666
S'pt:[25.0,30.0]'
p667
(dp668
g7
F0.9972719550132751
sg8
F0.0021407495797563397
ssS'pt:[30.0,40.0]'
p669
(dp670
g7
F1.0000364780426025
sg8
F0.0007651987260104043
ssS'pt:[60.0,120.0]'
p671
(dp672
g7
F0.9997790455818176
sg8
F0.000875229090068117
ssS'pt:[20.0,25.0]'
p673
(dp674
g7
F0.9999233484268188
sg8
F0.0037479534197887524
ssS'pt:[40.0,50.0]'
p675
(dp676
g7
F0.9984670281410217
sg8
F0.00043016348430872215
ssS'pt:[50.0,60.0]'
p677
(dp678
g7
F0.9985744953155518
sg8
F0.0007305130588312294
sssS'abseta:[1.2,2.1]'
p679
(dp680
S'pt:[25.0,30.0]'
p681
(dp682
g7
F1.0008577108383179
sg8
F0.0018883013420904475
ssS'pt:[30.0,40.0]'
p683
(dp684
g7
F1.0010744333267212
sg8
F0.0007870718006215067
ssS'pt:[60.0,120.0]'
p685
(dp686
g7
F1.0012601613998413
sg8
F0.0009152809216634893
ssS'pt:[20.0,25.0]'
p687
(dp688
g7
F0.9937877655029297
sg8
F0.0028509427249494585
ssS'pt:[40.0,50.0]'
p689
(dp690
g7
F0.9990620613098145
sg8
F0.0002641645915440564
ssS'pt:[50.0,60.0]'
p691
(dp692
g7
F0.9991379380226135
sg8
F0.0006780297796297373
sssS'abseta:[2.1,2.4]'
p693
(dp694
S'pt:[25.0,30.0]'
p695
(dp696
g7
F0.9953659176826477
sg8
F0.0033906839265062053
ssS'pt:[30.0,40.0]'
p697
(dp698
g7
F0.9976503252983093
sg8
F0.0014728084424716716
ssS'pt:[60.0,120.0]'
p699
(dp700
g7
F0.9990492463111877
sg8
F0.0021163911439328934
ssS'pt:[20.0,25.0]'
p701
(dp702
g7
F0.9926856160163879
sg8
F0.00516003666294503
ssS'pt:[40.0,50.0]'
p703
(dp704
g7
F0.9994420409202576
sg8
F0.000621728163404163
ssS'pt:[50.0,60.0]'
p705
(dp706
g7
F1.0009126663208008
sg8
F0.001480885463336233
sssS'abseta:[0.9,1.2]'
p707
(dp708
S'pt:[25.0,30.0]'
p709
(dp710
g7
F0.9945319294929504
sg8
F0.0037844778555734863
ssS'pt:[30.0,40.0]'
p711
(dp712
g7
F1.0003032684326172
sg8
F0.0013958479376580918
ssS'pt:[60.0,120.0]'
p713
(dp714
g7
F1.0006041526794434
sg8
F0.0014970535826952613
ssS'pt:[20.0,25.0]'
p715
(dp716
g7
F1.006879210472107
sg8
F0.005793381883923882
ssS'pt:[40.0,50.0]'
p717
(dp718
g7
F0.9998740553855896
sg8
F0.0005371465939230162
ssS'pt:[50.0,60.0]'
p719
(dp720
g7
F1.0013928413391113
sg8
F0.0012294358093290422
sssssS'MC_NUM_TightRelIso_DEN_MediumID_PAR_pt_spliteta_bin1'
p721
(dp722
S'pt_abseta_ratio'
p723
(dp724
S'pt:[25.0,30.0]'
p725
(dp726
S'abseta:[0.0,0.9]'
p727
(dp728
g7
F0.997163712978363
sg8
F0.002117838411392674
ssS'abseta:[1.2,2.1]'
p729
(dp730
g7
F1.0010560750961304
sg8
F0.0018839205882227176
ssS'abseta:[2.1,2.4]'
p731
(dp732
g7
F0.9959341883659363
sg8
F0.0034131358462335974
ssS'abseta:[0.9,1.2]'
p733
(dp734
g7
F0.9954320788383484
sg8
F0.0037510311148672326
sssS'pt:[30.0,40.0]'
p735
(dp736
S'abseta:[0.0,0.9]'
p737
(dp738
g7
F1.000203013420105
sg8
F0.0007556194122961892
ssS'abseta:[1.2,2.1]'
p739
(dp740
g7
F1.0011608600616455
sg8
F0.0007861214458926409
ssS'abseta:[2.1,2.4]'
p741
(dp742
g7
F0.9967961311340332
sg8
F0.0014728658502745006
ssS'abseta:[0.9,1.2]'
p743
(dp744
g7
F0.999851644039154
sg8
F0.0013890198983475472
sssS'pt:[60.0,120.0]'
p745
(dp746
S'abseta:[0.0,0.9]'
p747
(dp748
g7
F0.9995083212852478
sg8
F0.0008823010159317097
ssS'abseta:[1.2,2.1]'
p749
(dp750
g7
F1.0016298294067383
sg8
F0.0009202717763766153
ssS'abseta:[2.1,2.4]'
p751
(dp752
g7
F0.9995776414871216
sg8
F0.0021686093367623864
ssS'abseta:[0.9,1.2]'
p753
(dp754
g7
F1.000072717666626
sg8
F0.001488606366424521
sssS'pt:[20.0,25.0]'
p755
(dp756
S'abseta:[0.0,0.9]'
p757
(dp758
g7
F1.000247836112976
sg8
F0.003715718207770533
ssS'abseta:[1.2,2.1]'
p759
(dp760
g7
F0.9938855767250061
sg8
F0.002834329911135487
ssS'abseta:[2.1,2.4]'
p761
(dp762
g7
F0.9948550462722778
sg8
F0.005173506809786701
ssS'abseta:[0.9,1.2]'
p763
(dp764
g7
F1.0076707601547241
sg8
F0.0057248870677462866
sssS'pt:[40.0,50.0]'
p765
(dp766
S'abseta:[0.0,0.9]'
p767
(dp768
g7
F0.9985139966011047
sg8
F0.0002832868588066638
ssS'abseta:[1.2,2.1]'
p769
(dp770
g7
F0.9989994764328003
sg8
F0.0003976524560029962
ssS'abseta:[2.1,2.4]'
p771
(dp772
g7
F0.999471127986908
sg8
F0.0006252636002448107
ssS'abseta:[0.9,1.2]'
p773
(dp774
g7
F0.999893307685852
sg8
F0.00046085431482371453
sssS'pt:[50.0,60.0]'
p775
(dp776
S'abseta:[0.0,0.9]'
p777
(dp778
g7
F0.998345673084259
sg8
F0.0007213399107049172
ssS'abseta:[1.2,2.1]'
p779
(dp780
g7
F0.9991013407707214
sg8
F0.0006777242278445913
ssS'abseta:[2.1,2.4]'
p781
(dp782
g7
F1.0002968311309814
sg8
F0.0014962208523119124
ssS'abseta:[0.9,1.2]'
p783
(dp784
g7
F1.000989556312561
sg8
F0.001225650608730765
ssssS'abseta_pt_ratio'
p785
(dp786
S'abseta:[0.0,0.9]'
p787
(dp788
S'pt:[25.0,30.0]'
p789
(dp790
g7
F0.997163712978363
sg8
F0.002117838411392674
ssS'pt:[30.0,40.0]'
p791
(dp792
g7
F1.000203013420105
sg8
F0.0007556194122961892
ssS'pt:[60.0,120.0]'
p793
(dp794
g7
F0.9995083212852478
sg8
F0.0008823010159317097
ssS'pt:[20.0,25.0]'
p795
(dp796
g7
F1.000247836112976
sg8
F0.003715718207770533
ssS'pt:[40.0,50.0]'
p797
(dp798
g7
F0.9985139966011047
sg8
F0.0002832868588066638
ssS'pt:[50.0,60.0]'
p799
(dp800
g7
F0.998345673084259
sg8
F0.0007213399107049172
sssS'abseta:[1.2,2.1]'
p801
(dp802
S'pt:[25.0,30.0]'
p803
(dp804
g7
F1.0010560750961304
sg8
F0.0018839205882227176
ssS'pt:[30.0,40.0]'
p805
(dp806
g7
F1.0011608600616455
sg8
F0.0007861214458926409
ssS'pt:[60.0,120.0]'
p807
(dp808
g7
F1.0016298294067383
sg8
F0.0009202717763766153
ssS'pt:[20.0,25.0]'
p809
(dp810
g7
F0.9938855767250061
sg8
F0.002834329911135487
ssS'pt:[40.0,50.0]'
p811
(dp812
g7
F0.9989994764328003
sg8
F0.0003976524560029962
ssS'pt:[50.0,60.0]'
p813
(dp814
g7
F0.9991013407707214
sg8
F0.0006777242278445913
sssS'abseta:[2.1,2.4]'
p815
(dp816
S'pt:[25.0,30.0]'
p817
(dp818
g7
F0.9959341883659363
sg8
F0.0034131358462335974
ssS'pt:[30.0,40.0]'
p819
(dp820
g7
F0.9967961311340332
sg8
F0.0014728658502745006
ssS'pt:[60.0,120.0]'
p821
(dp822
g7
F0.9995776414871216
sg8
F0.0021686093367623864
ssS'pt:[20.0,25.0]'
p823
(dp824
g7
F0.9948550462722778
sg8
F0.005173506809786701
ssS'pt:[40.0,50.0]'
p825
(dp826
g7
F0.999471127986908
sg8
F0.0006252636002448107
ssS'pt:[50.0,60.0]'
p827
(dp828
g7
F1.0002968311309814
sg8
F0.0014962208523119124
sssS'abseta:[0.9,1.2]'
p829
(dp830
S'pt:[25.0,30.0]'
p831
(dp832
g7
F0.9954320788383484
sg8
F0.0037510311148672326
ssS'pt:[30.0,40.0]'
p833
(dp834
g7
F0.999851644039154
sg8
F0.0013890198983475472
ssS'pt:[60.0,120.0]'
p835
(dp836
g7
F1.000072717666626
sg8
F0.001488606366424521
ssS'pt:[20.0,25.0]'
p837
(dp838
g7
F1.0076707601547241
sg8
F0.0057248870677462866
ssS'pt:[40.0,50.0]'
p839
(dp840
g7
F0.999893307685852
sg8
F0.00046085431482371453
ssS'pt:[50.0,60.0]'
p841
(dp842
g7
F1.000989556312561
sg8
F0.001225650608730765
sssssS'MC_NUM_TightRelIso_DEN_TightID_PAR_pt_alleta_bin1'
p843
(dp844
S'pt_ratio'
p845
(dp846
S'pt:[25.0,30.0]'
p847
(dp848
g7
F0.998546838760376
sg8
F0.0012583122586119766
ssS'pt:[30.0,40.0]'
p849
(dp850
g7
F1.00017511844635
sg8
F0.0004888054713571687
ssS'pt:[80.0,120.0]'
p851
(dp852
g7
F1.0001007318496704
sg8
F0.001139256179752175
ssS'pt:[120.0,200.0]'
p853
(dp854
g7
F1.0039352178573608
sg8
F0.0031170145069761438
ssS'pt:[60.0,80.0]'
p855
(dp856
g7
F1.0000931024551392
sg8
F0.0006444436024894768
ssS'pt:[20.0,25.0]'
p857
(dp858
g7
F0.9981462359428406
sg8
F0.0019779239622040494
ssS'pt:[40.0,50.0]'
p859
(dp860
g7
F0.9988560676574707
sg8
F0.00019940407431831951
ssS'pt:[50.0,60.0]'
p861
(dp862
g7
F0.9992324113845825
sg8
F0.00045048256840976635
ssss.