(dp0
S'NUM_LooseRelIso_DEN_MediumID_PAR_pt_alleta_bin1'
p1
(dp2
S'pt_ratio'
p3
(dp4
S'pt:[25.0,30.0]'
p5
(dp6
S'value'
p7
F1.0016402006149292
sS'error'
p8
F0.0008974404238116531
ssS'pt:[30.0,40.0]'
p9
(dp10
g7
F1.0013442039489746
sg8
F0.00031101013259950193
ssS'pt:[80.0,120.0]'
p11
(dp12
g7
F0.999739408493042
sg8
F0.0007327265421652586
ssS'pt:[120.0,200.0]'
p13
(dp14
g7
F1.0015078783035278
sg8
F0.0018454693094715582
ssS'pt:[60.0,80.0]'
p15
(dp16
g7
F0.9998708963394165
sg8
F0.0003883810654849147
ssS'pt:[20.0,25.0]'
p17
(dp18
g7
F1.0019557476043701
sg8
F0.0014240837577632799
ssS'pt:[40.0,50.0]'
p19
(dp20
g7
F0.9999131560325623
sg8
F9.093914652157644e-05
ssS'pt:[50.0,60.0]'
p21
(dp22
g7
F1.0005289316177368
sg8
F0.0003147241696719899
ssssS'NUM_LooseRelIso_DEN_MediumID_PAR_eta'
p23
(dp24
S'eta_ratio'
p25
(dp26
S'eta:[-0.2,0.2]'
p27
(dp28
g7
F1.0002561807632446
sg8
F0.0005161900424178469
ssS'eta:[-2.4,-2.1]'
p29
(dp30
g7
F0.9995728135108948
sg8
F0.0008320678239065593
ssS'eta:[0.3,0.9]'
p31
(dp32
g7
F1.000959873199463
sg8
F0.0004023109184450087
ssS'eta:[-0.9,-0.3]'
p33
(dp34
g7
F1.0011941194534302
sg8
F0.00041074760688605507
ssS'eta:[0.2,0.3]'
p35
(dp36
g7
F1.000670313835144
sg8
F0.0010330130085355242
ssS'eta:[0.9,1.2]'
p37
(dp38
g7
F1.0011948347091675
sg8
F0.000588294247579498
ssS'eta:[-1.2,-0.9]'
p39
(dp40
g7
F1.0009715557098389
sg8
F0.0005799308377009357
ssS'eta:[2.1,2.4]'
p41
(dp42
g7
F0.9994275569915771
sg8
F0.0008089599585350143
ssS'eta:[-1.6,-1.2]'
p43
(dp44
g7
F1.0005098581314087
sg8
F0.0005114007427514696
ssS'eta:[1.2,1.6]'
p45
(dp46
g7
F1.0017292499542236
sg8
F0.0005391481843101203
ssS'eta:[-2.1,-1.6]'
p47
(dp48
g7
F1.0001282691955566
sg8
F0.00048258793005818306
ssS'eta:[-0.3,-0.2]'
p49
(dp50
g7
F1.001892328262329
sg8
F0.0010265884472470442
ssS'eta:[1.6,2.1]'
p51
(dp52
g7
F1.0004130601882935
sg8
F0.0004814774855062715
ssssS'NUM_TightRelIso_DEN_MediumID_PAR_pt_spliteta_bin1'
p53
(dp54
S'pt_abseta_ratio'
p55
(dp56
S'pt:[25.0,30.0]'
p57
(dp58
S'abseta:[0.0,0.9]'
p59
(dp60
g7
F1.000996470451355
sg8
F0.0021793077583608243
ssS'abseta:[1.2,2.1]'
p61
(dp62
g7
F1.0002834796905518
sg8
F0.001975700045236508
ssS'abseta:[2.1,2.4]'
p63
(dp64
g7
F0.9935650825500488
sg8
F0.004001485995400462
ssS'abseta:[0.9,1.2]'
p65
(dp66
g7
F1.0037331581115723
sg8
F0.0037924503158865896
sssS'pt:[30.0,40.0]'
p67
(dp68
S'abseta:[0.0,0.9]'
p69
(dp70
g7
F1.000793695449829
sg8
F0.0007744879270011063
ssS'abseta:[1.2,2.1]'
p71
(dp72
g7
F1.0031203031539917
sg8
F0.0008157722375974536
ssS'abseta:[2.1,2.4]'
p73
(dp74
g7
F0.9967588782310486
sg8
F0.0016757757091036731
ssS'abseta:[0.9,1.2]'
p75
(dp76
g7
F1.004714012145996
sg8
F0.001414079886321631
sssS'pt:[60.0,120.0]'
p77
(dp78
S'abseta:[0.0,0.9]'
p79
(dp80
g7
F0.9985542297363281
sg8
F0.0008983455405105096
ssS'abseta:[1.2,2.1]'
p81
(dp82
g7
F1.000565528869629
sg8
F0.0009120810436642842
ssS'abseta:[2.1,2.4]'
p83
(dp84
g7
F0.998136043548584
sg8
F0.0022126529948509254
ssS'abseta:[0.9,1.2]'
p85
(dp86
g7
F1.0044281482696533
sg8
F0.0015654806953272074
sssS'pt:[20.0,25.0]'
p87
(dp88
S'abseta:[0.0,0.9]'
p89
(dp90
g7
F1.0045130252838135
sg8
F0.0038307857954587026
ssS'abseta:[1.2,2.1]'
p91
(dp92
g7
F0.996890127658844
sg8
F0.00297546144404965
ssS'abseta:[2.1,2.4]'
p93
(dp94
g7
F0.9931977987289429
sg8
F0.005815751081184879
ssS'abseta:[0.9,1.2]'
p95
(dp96
g7
F1.0043407678604126
sg8
F0.005679043326415565
sssS'pt:[40.0,50.0]'
p97
(dp98
S'abseta:[0.0,0.9]'
p99
(dp100
g7
F0.9986824989318848
sg8
F0.00043951333404617266
ssS'abseta:[1.2,2.1]'
p101
(dp102
g7
F0.9998513460159302
sg8
F0.00041639717626167067
ssS'abseta:[2.1,2.4]'
p103
(dp104
g7
F1.002709150314331
sg8
F0.0010661359409721315
ssS'abseta:[0.9,1.2]'
p105
(dp106
g7
F1.0016640424728394
sg8
F0.000724018665354712
sssS'pt:[50.0,60.0]'
p107
(dp108
S'abseta:[0.0,0.9]'
p109
(dp110
g7
F1.0000017881393433
sg8
F0.000744435194902006
ssS'abseta:[1.2,2.1]'
p111
(dp112
g7
F1.0006482601165771
sg8
F0.000726200061549951
ssS'abseta:[2.1,2.4]'
p113
(dp114
g7
F1.004294514656067
sg8
F0.0017419989365259024
ssS'abseta:[0.9,1.2]'
p115
(dp116
g7
F0.9976680278778076
sg8
F0.0011799500609769266
ssssS'abseta_pt_ratio'
p117
(dp118
S'abseta:[0.0,0.9]'
p119
(dp120
S'pt:[25.0,30.0]'
p121
(dp122
g7
F1.000996470451355
sg8
F0.0021793077583608243
ssS'pt:[30.0,40.0]'
p123
(dp124
g7
F1.000793695449829
sg8
F0.0007744879270011063
ssS'pt:[60.0,120.0]'
p125
(dp126
g7
F0.9985542297363281
sg8
F0.0008983455405105096
ssS'pt:[20.0,25.0]'
p127
(dp128
g7
F1.0045130252838135
sg8
F0.0038307857954587026
ssS'pt:[40.0,50.0]'
p129
(dp130
g7
F0.9986824989318848
sg8
F0.00043951333404617266
ssS'pt:[50.0,60.0]'
p131
(dp132
g7
F1.0000017881393433
sg8
F0.000744435194902006
sssS'abseta:[1.2,2.1]'
p133
(dp134
S'pt:[25.0,30.0]'
p135
(dp136
g7
F1.0002834796905518
sg8
F0.001975700045236508
ssS'pt:[30.0,40.0]'
p137
(dp138
g7
F1.0031203031539917
sg8
F0.0008157722375974536
ssS'pt:[60.0,120.0]'
p139
(dp140
g7
F1.000565528869629
sg8
F0.0009120810436642842
ssS'pt:[20.0,25.0]'
p141
(dp142
g7
F0.996890127658844
sg8
F0.00297546144404965
ssS'pt:[40.0,50.0]'
p143
(dp144
g7
F0.9998513460159302
sg8
F0.00041639717626167067
ssS'pt:[50.0,60.0]'
p145
(dp146
g7
F1.0006482601165771
sg8
F0.000726200061549951
sssS'abseta:[2.1,2.4]'
p147
(dp148
S'pt:[25.0,30.0]'
p149
(dp150
g7
F0.9935650825500488
sg8
F0.004001485995400462
ssS'pt:[30.0,40.0]'
p151
(dp152
g7
F0.9967588782310486
sg8
F0.0016757757091036731
ssS'pt:[60.0,120.0]'
p153
(dp154
g7
F0.998136043548584
sg8
F0.0022126529948509254
ssS'pt:[20.0,25.0]'
p155
(dp156
g7
F0.9931977987289429
sg8
F0.005815751081184879
ssS'pt:[40.0,50.0]'
p157
(dp158
g7
F1.002709150314331
sg8
F0.0010661359409721315
ssS'pt:[50.0,60.0]'
p159
(dp160
g7
F1.004294514656067
sg8
F0.0017419989365259024
sssS'abseta:[0.9,1.2]'
p161
(dp162
S'pt:[25.0,30.0]'
p163
(dp164
g7
F1.0037331581115723
sg8
F0.0037924503158865896
ssS'pt:[30.0,40.0]'
p165
(dp166
g7
F1.004714012145996
sg8
F0.001414079886321631
ssS'pt:[60.0,120.0]'
p167
(dp168
g7
F1.0044281482696533
sg8
F0.0015654806953272074
ssS'pt:[20.0,25.0]'
p169
(dp170
g7
F1.0043407678604126
sg8
F0.005679043326415565
ssS'pt:[40.0,50.0]'
p171
(dp172
g7
F1.0016640424728394
sg8
F0.000724018665354712
ssS'pt:[50.0,60.0]'
p173
(dp174
g7
F0.9976680278778076
sg8
F0.0011799500609769266
sssssS'NUM_LooseRelIso_DEN_LooseID_PAR_pt_alleta_bin1'
p175
(dp176
S'pt_ratio'
p177
(dp178
S'pt:[25.0,30.0]'
p179
(dp180
g7
F1.0016065835952759
sg8
F0.0008998286767359952
ssS'pt:[30.0,40.0]'
p181
(dp182
g7
F1.001381278038025
sg8
F0.0003110944396460739
ssS'pt:[80.0,120.0]'
p183
(dp184
g7
F0.9996273517608643
sg8
F0.0007345151405904845
ssS'pt:[120.0,200.0]'
p185
(dp186
g7
F1.0014015436172485
sg8
F0.0018759924977059014
ssS'pt:[60.0,80.0]'
p187
(dp188
g7
F0.9997987151145935
sg8
F0.0003961636026453163
ssS'pt:[20.0,25.0]'
p189
(dp190
g7
F1.0023915767669678
sg8
F0.0014182601178310689
ssS'pt:[40.0,50.0]'
p191
(dp192
g7
F0.9998630881309509
sg8
F0.0001390678630133176
ssS'pt:[50.0,60.0]'
p193
(dp194
g7
F1.0005253553390503
sg8
F0.0003174044655941633
ssssS'NUM_LooseRelIso_DEN_LooseID_PAR_pt_spliteta_bin1'
p195
(dp196
S'pt_abseta_ratio'
p197
(dp198
S'pt:[25.0,30.0]'
p199
(dp200
S'abseta:[0.0,0.9]'
p201
(dp202
g7
F1.001121163368225
sg8
F0.0014718804059391712
ssS'abseta:[1.2,2.1]'
p203
(dp204
g7
F1.0029096603393555
sg8
F0.0013673335635084494
ssS'abseta:[2.1,2.4]'
p205
(dp206
g7
F0.9995953440666199
sg8
F0.002358153421234362
ssS'abseta:[0.9,1.2]'
p207
(dp208
g7
F0.9992886781692505
sg8
F0.0026668699849830614
sssS'pt:[30.0,40.0]'
p209
(dp210
S'abseta:[0.0,0.9]'
p211
(dp212
g7
F1.0010559558868408
sg8
F0.00047135945485298104
ssS'abseta:[1.2,2.1]'
p213
(dp214
g7
F1.0021971464157104
sg8
F0.0005086322037356531
ssS'abseta:[2.1,2.4]'
p215
(dp216
g7
F0.9992967247962952
sg8
F0.0010100666836243884
ssS'abseta:[0.9,1.2]'
p217
(dp218
g7
F1.001988410949707
sg8
F0.0008603349844019673
sssS'pt:[60.0,120.0]'
p219
(dp220
S'abseta:[0.0,0.9]'
p221
(dp222
g7
F0.9995308518409729
sg8
F0.0005275369252925052
ssS'abseta:[1.2,2.1]'
p223
(dp224
g7
F0.9996739625930786
sg8
F0.000574716255886559
ssS'abseta:[2.1,2.4]'
p225
(dp226
g7
F1.001832127571106
sg8
F0.0015017104261081007
ssS'abseta:[0.9,1.2]'
p227
(dp228
g7
F1.000341534614563
sg8
F0.0009618325321970385
sssS'pt:[20.0,25.0]'
p229
(dp230
S'abseta:[0.0,0.9]'
p231
(dp232
g7
F1.0031111240386963
sg8
F0.0026971960775766055
ssS'abseta:[1.2,2.1]'
p233
(dp234
g7
F0.9988276958465576
sg8
F0.001933445787755503
ssS'abseta:[2.1,2.4]'
p235
(dp236
g7
F1.0026319026947021
sg8
F0.003753906354696657
ssS'abseta:[0.9,1.2]'
p237
(dp238
g7
F1.0096358060836792
sg8
F0.004103244453784389
sssS'pt:[40.0,50.0]'
p239
(dp240
S'abseta:[0.0,0.9]'
p241
(dp242
g7
F0.9995610117912292
sg8
F0.00016468259941465637
ssS'abseta:[1.2,2.1]'
p243
(dp244
g7
F1.0001192092895508
sg8
F0.00013916880667662996
ssS'abseta:[2.1,2.4]'
p245
(dp246
g7
F1.0003941059112549
sg8
F0.0003411516762418356
ssS'abseta:[0.9,1.2]'
p247
(dp248
g7
F1.000235676765442
sg8
F0.0002450761202767465
sssS'pt:[50.0,60.0]'
p249
(dp250
S'abseta:[0.0,0.9]'
p251
(dp252
g7
F1.001264214515686
sg8
F0.00042177561879288644
ssS'abseta:[1.2,2.1]'
p253
(dp254
g7
F1.0002683401107788
sg8
F0.0005333027089440471
ssS'abseta:[2.1,2.4]'
p255
(dp256
g7
F1.001329779624939
sg8
F0.0011836166369201776
ssS'abseta:[0.9,1.2]'
p257
(dp258
g7
F0.9984482526779175
sg8
F0.000623997955823902
ssssS'abseta_pt_ratio'
p259
(dp260
S'abseta:[0.0,0.9]'
p261
(dp262
S'pt:[25.0,30.0]'
p263
(dp264
g7
F1.001121163368225
sg8
F0.0014718804059391712
ssS'pt:[30.0,40.0]'
p265
(dp266
g7
F1.0010559558868408
sg8
F0.00047135945485298104
ssS'pt:[60.0,120.0]'
p267
(dp268
g7
F0.9995308518409729
sg8
F0.0005275369252925052
ssS'pt:[20.0,25.0]'
p269
(dp270
g7
F1.0031111240386963
sg8
F0.0026971960775766055
ssS'pt:[40.0,50.0]'
p271
(dp272
g7
F0.9995610117912292
sg8
F0.00016468259941465637
ssS'pt:[50.0,60.0]'
p273
(dp274
g7
F1.001264214515686
sg8
F0.00042177561879288644
sssS'abseta:[1.2,2.1]'
p275
(dp276
S'pt:[25.0,30.0]'
p277
(dp278
g7
F1.0029096603393555
sg8
F0.0013673335635084494
ssS'pt:[30.0,40.0]'
p279
(dp280
g7
F1.0021971464157104
sg8
F0.0005086322037356531
ssS'pt:[60.0,120.0]'
p281
(dp282
g7
F0.9996739625930786
sg8
F0.000574716255886559
ssS'pt:[20.0,25.0]'
p283
(dp284
g7
F0.9988276958465576
sg8
F0.001933445787755503
ssS'pt:[40.0,50.0]'
p285
(dp286
g7
F1.0001192092895508
sg8
F0.00013916880667662996
ssS'pt:[50.0,60.0]'
p287
(dp288
g7
F1.0002683401107788
sg8
F0.0005333027089440471
sssS'abseta:[2.1,2.4]'
p289
(dp290
S'pt:[25.0,30.0]'
p291
(dp292
g7
F0.9995953440666199
sg8
F0.002358153421234362
ssS'pt:[30.0,40.0]'
p293
(dp294
g7
F0.9992967247962952
sg8
F0.0010100666836243884
ssS'pt:[60.0,120.0]'
p295
(dp296
g7
F1.001832127571106
sg8
F0.0015017104261081007
ssS'pt:[20.0,25.0]'
p297
(dp298
g7
F1.0026319026947021
sg8
F0.003753906354696657
ssS'pt:[40.0,50.0]'
p299
(dp300
g7
F1.0003941059112549
sg8
F0.0003411516762418356
ssS'pt:[50.0,60.0]'
p301
(dp302
g7
F1.001329779624939
sg8
F0.0011836166369201776
sssS'abseta:[0.9,1.2]'
p303
(dp304
S'pt:[25.0,30.0]'
p305
(dp306
g7
F0.9992886781692505
sg8
F0.0026668699849830614
ssS'pt:[30.0,40.0]'
p307
(dp308
g7
F1.001988410949707
sg8
F0.0008603349844019673
ssS'pt:[60.0,120.0]'
p309
(dp310
g7
F1.000341534614563
sg8
F0.0009618325321970385
ssS'pt:[20.0,25.0]'
p311
(dp312
g7
F1.0096358060836792
sg8
F0.004103244453784389
ssS'pt:[40.0,50.0]'
p313
(dp314
g7
F1.000235676765442
sg8
F0.0002450761202767465
ssS'pt:[50.0,60.0]'
p315
(dp316
g7
F0.9984482526779175
sg8
F0.000623997955823902
sssssS'NUM_LooseRelIso_DEN_TightID_PAR_pt_alleta_bin1'
p317
(dp318
S'pt_ratio'
p319
(dp320
S'pt:[25.0,30.0]'
p321
(dp322
g7
F1.0016146898269653
sg8
F0.0009093886787706993
ssS'pt:[30.0,40.0]'
p323
(dp324
g7
F1.0013540983200073
sg8
F0.0003126730487992079
ssS'pt:[80.0,120.0]'
p325
(dp326
g7
F0.9997391104698181
sg8
F0.0007473215328072165
ssS'pt:[120.0,200.0]'
p327
(dp328
g7
F1.0014134645462036
sg8
F0.0019545747576850576
ssS'pt:[60.0,80.0]'
p329
(dp330
g7
F1.0000957250595093
sg8
F0.0003902640589111983
ssS'pt:[20.0,25.0]'
p331
(dp332
g7
F1.0017163753509521
sg8
F0.0014350631597646712
ssS'pt:[40.0,50.0]'
p333
(dp334
g7
F0.9999291896820068
sg8
F0.004547456575416423
ssS'pt:[50.0,60.0]'
p335
(dp336
g7
F1.0005427598953247
sg8
F0.0002524338012634257
ssssS'NUM_LooseRelIso_DEN_TightID_PAR_pt_spliteta_bin1'
p337
(dp338
S'pt_abseta_ratio'
p339
(dp340
S'pt:[25.0,30.0]'
p341
(dp342
S'abseta:[0.0,0.9]'
p343
(dp344
g7
F1.0010522603988647
sg8
F0.0014935369038315929
ssS'abseta:[1.2,2.1]'
p345
(dp346
g7
F1.0028959512710571
sg8
F0.001361356230383972
ssS'abseta:[2.1,2.4]'
p347
(dp348
g7
F1.0000816583633423
sg8
F0.002358367752168993
ssS'abseta:[0.9,1.2]'
p349
(dp350
g7
F0.9989631175994873
sg8
F0.002671805875770497
sssS'pt:[30.0,40.0]'
p351
(dp352
S'abseta:[0.0,0.9]'
p353
(dp354
g7
F1.0010156631469727
sg8
F0.00047737245008214093
ssS'abseta:[1.2,2.1]'
p355
(dp356
g7
F1.002073049545288
sg8
F0.0005084168201508569
ssS'abseta:[2.1,2.4]'
p357
(dp358
g7
F0.9991493821144104
sg8
F0.0010179622289245708
ssS'abseta:[0.9,1.2]'
p359
(dp360
g7
F1.0022121667861938
sg8
F0.0008674394744098296
sssS'pt:[60.0,120.0]'
p361
(dp362
S'abseta:[0.0,0.9]'
p363
(dp364
g7
F0.9997919201850891
sg8
F0.0005304675774420015
ssS'abseta:[1.2,2.1]'
p365
(dp366
g7
F0.9997470378875732
sg8
F0.000562684447824031
ssS'abseta:[2.1,2.4]'
p367
(dp368
g7
F1.0024350881576538
sg8
F0.0014902552015850304
ssS'abseta:[0.9,1.2]'
p369
(dp370
g7
F1.0007113218307495
sg8
F0.0008983639579957489
sssS'pt:[20.0,25.0]'
p371
(dp372
S'abseta:[0.0,0.9]'
p373
(dp374
g7
F1.0027892589569092
sg8
F0.0027139663885439994
ssS'abseta:[1.2,2.1]'
p375
(dp376
g7
F0.9982452988624573
sg8
F0.0019618871422695276
ssS'abseta:[2.1,2.4]'
p377
(dp378
g7
F1.0010390281677246
sg8
F0.003844069892274639
ssS'abseta:[0.9,1.2]'
p379
(dp380
g7
F1.0088433027267456
sg8
F0.0042522537758218825
sssS'pt:[40.0,50.0]'
p381
(dp382
S'abseta:[0.0,0.9]'
p383
(dp384
g7
F0.9995421171188354
sg8
F0.0002189874167031605
ssS'abseta:[1.2,2.1]'
p385
(dp386
g7
F1.000279426574707
sg8
F0.003093588244819034
ssS'abseta:[2.1,2.4]'
p387
(dp388
g7
F1.0006216764450073
sg8
F0.0035702910925469377
ssS'abseta:[0.9,1.2]'
p389
(dp390
g7
F1.0001529455184937
sg8
F0.0003642601958257924
sssS'pt:[50.0,60.0]'
p391
(dp392
S'abseta:[0.0,0.9]'
p393
(dp394
g7
F1.0010881423950195
sg8
F0.0003990635945614013
ssS'abseta:[1.2,2.1]'
p395
(dp396
g7
F1.000565528869629
sg8
F0.0007480239505370149
ssS'abseta:[2.1,2.4]'
p397
(dp398
g7
F1.0013179779052734
sg8
F0.0008945461644542332
ssS'abseta:[0.9,1.2]'
p399
(dp400
g7
F0.9986236691474915
sg8
F0.0006074756704727985
ssssS'abseta_pt_ratio'
p401
(dp402
S'abseta:[0.0,0.9]'
p403
(dp404
S'pt:[25.0,30.0]'
p405
(dp406
g7
F1.0010522603988647
sg8
F0.0014935369038315929
ssS'pt:[30.0,40.0]'
p407
(dp408
g7
F1.0010156631469727
sg8
F0.00047737245008214093
ssS'pt:[60.0,120.0]'
p409
(dp410
g7
F0.9997919201850891
sg8
F0.0005304675774420015
ssS'pt:[20.0,25.0]'
p411
(dp412
g7
F1.0027892589569092
sg8
F0.0027139663885439994
ssS'pt:[40.0,50.0]'
p413
(dp414
g7
F0.9995421171188354
sg8
F0.0002189874167031605
ssS'pt:[50.0,60.0]'
p415
(dp416
g7
F1.0010881423950195
sg8
F0.0003990635945614013
sssS'abseta:[1.2,2.1]'
p417
(dp418
S'pt:[25.0,30.0]'
p419
(dp420
g7
F1.0028959512710571
sg8
F0.001361356230383972
ssS'pt:[30.0,40.0]'
p421
(dp422
g7
F1.002073049545288
sg8
F0.0005084168201508569
ssS'pt:[60.0,120.0]'
p423
(dp424
g7
F0.9997470378875732
sg8
F0.000562684447824031
ssS'pt:[20.0,25.0]'
p425
(dp426
g7
F0.9982452988624573
sg8
F0.0019618871422695276
ssS'pt:[40.0,50.0]'
p427
(dp428
g7
F1.000279426574707
sg8
F0.003093588244819034
ssS'pt:[50.0,60.0]'
p429
(dp430
g7
F1.000565528869629
sg8
F0.0007480239505370149
sssS'abseta:[2.1,2.4]'
p431
(dp432
S'pt:[25.0,30.0]'
p433
(dp434
g7
F1.0000816583633423
sg8
F0.002358367752168993
ssS'pt:[30.0,40.0]'
p435
(dp436
g7
F0.9991493821144104
sg8
F0.0010179622289245708
ssS'pt:[60.0,120.0]'
p437
(dp438
g7
F1.0024350881576538
sg8
F0.0014902552015850304
ssS'pt:[20.0,25.0]'
p439
(dp440
g7
F1.0010390281677246
sg8
F0.003844069892274639
ssS'pt:[40.0,50.0]'
p441
(dp442
g7
F1.0006216764450073
sg8
F0.0035702910925469377
ssS'pt:[50.0,60.0]'
p443
(dp444
g7
F1.0013179779052734
sg8
F0.0008945461644542332
sssS'abseta:[0.9,1.2]'
p445
(dp446
S'pt:[25.0,30.0]'
p447
(dp448
g7
F0.9989631175994873
sg8
F0.002671805875770497
ssS'pt:[30.0,40.0]'
p449
(dp450
g7
F1.0022121667861938
sg8
F0.0008674394744098296
ssS'pt:[60.0,120.0]'
p451
(dp452
g7
F1.0007113218307495
sg8
F0.0008983639579957489
ssS'pt:[20.0,25.0]'
p453
(dp454
g7
F1.0088433027267456
sg8
F0.0042522537758218825
ssS'pt:[40.0,50.0]'
p455
(dp456
g7
F1.0001529455184937
sg8
F0.0003642601958257924
ssS'pt:[50.0,60.0]'
p457
(dp458
g7
F0.9986236691474915
sg8
F0.0006074756704727985
sssssS'NUM_TightRelIso_DEN_MediumID_PAR_pt_alleta_bin1'
p459
(dp460
S'pt_ratio'
p461
(dp462
S'pt:[25.0,30.0]'
p463
(dp464
g7
F1.0008107423782349
sg8
F0.001309157565173504
ssS'pt:[30.0,40.0]'
p465
(dp466
g7
F1.0017448663711548
sg8
F0.0005031673202884467
ssS'pt:[80.0,120.0]'
p467
(dp468
g7
F0.9995287656784058
sg8
F0.0011221804217311482
ssS'pt:[120.0,200.0]'
p469
(dp470
g7
F1.0041897296905518
sg8
F0.0031352670296472067
ssS'pt:[60.0,80.0]'
p471
(dp472
g7
F0.9998305439949036
sg8
F0.0006722948212220654
ssS'pt:[20.0,25.0]'
p473
(dp474
g7
F1.000777006149292
sg8
F0.0020570146534793212
ssS'pt:[40.0,50.0]'
p475
(dp476
g7
F0.9996498823165894
sg8
F0.0002753065705670153
ssS'pt:[50.0,60.0]'
p477
(dp478
g7
F1.0000916719436646
sg8
F0.0004639561126530246
ssssS'NUM_LooseRelIso_DEN_MediumID_PAR_pt_spliteta_bin1'
p479
(dp480
S'pt_abseta_ratio'
p481
(dp482
S'pt:[25.0,30.0]'
p483
(dp484
S'abseta:[0.0,0.9]'
p485
(dp486
g7
F1.0013055801391602
sg8
F0.0014783415872335357
ssS'abseta:[1.2,2.1]'
p487
(dp488
g7
F1.002827525138855
sg8
F0.0013585324486888616
ssS'abseta:[2.1,2.4]'
p489
(dp490
g7
F0.9993618130683899
sg8
F0.002398188808737608
ssS'abseta:[0.9,1.2]'
p491
(dp492
g7
F0.9992221593856812
sg8
F0.0026591592642364907
sssS'pt:[30.0,40.0]'
p493
(dp494
S'abseta:[0.0,0.9]'
p495
(dp496
g7
F1.0009783506393433
sg8
F0.0004719471332202453
ssS'abseta:[1.2,2.1]'
p497
(dp498
g7
F1.0022536516189575
sg8
F0.0005080957666545417
ssS'abseta:[2.1,2.4]'
p499
(dp500
g7
F0.9990622401237488
sg8
F0.0010362297219359403
ssS'abseta:[0.9,1.2]'
p501
(dp502
g7
F1.0020567178726196
sg8
F0.0008638115568878934
sssS'pt:[60.0,120.0]'
p503
(dp504
S'abseta:[0.0,0.9]'
p505
(dp506
g7
F0.9995772838592529
sg8
F0.000522303081217241
ssS'abseta:[1.2,2.1]'
p507
(dp508
g7
F0.9998029470443726
sg8
F0.000556054494055548
ssS'abseta:[2.1,2.4]'
p509
(dp510
g7
F1.0018373727798462
sg8
F0.0015235568984717145
ssS'abseta:[0.9,1.2]'
p511
(dp512
g7
F1.0003364086151123
sg8
F0.00090739307465246
sssS'pt:[20.0,25.0]'
p513
(dp514
S'abseta:[0.0,0.9]'
p515
(dp516
g7
F1.0029964447021484
sg8
F0.002697022642874456
ssS'abseta:[1.2,2.1]'
p517
(dp518
g7
F0.9984506964683533
sg8
F0.001945992978943267
ssS'abseta:[2.1,2.4]'
p519
(dp520
g7
F1.0021040439605713
sg8
F0.003865083192207926
ssS'abseta:[0.9,1.2]'
p521
(dp522
g7
F1.0081968307495117
sg8
F0.004294808620553118
sssS'pt:[40.0,50.0]'
p523
(dp524
S'abseta:[0.0,0.9]'
p525
(dp526
g7
F0.999563992023468
sg8
F0.00014652953255554383
ssS'abseta:[1.2,2.1]'
p527
(dp528
g7
F1.0001552104949951
sg8
F0.00013529923361854676
ssS'abseta:[2.1,2.4]'
p529
(dp530
g7
F1.0004111528396606
sg8
F0.0005100426065425211
ssS'abseta:[0.9,1.2]'
p531
(dp532
g7
F1.0003796815872192
sg8
F0.0011528108138915663
sssS'pt:[50.0,60.0]'
p533
(dp534
S'abseta:[0.0,0.9]'
p535
(dp536
g7
F1.0011109113693237
sg8
F0.00040072213954046333
ssS'abseta:[1.2,2.1]'
p537
(dp538
g7
F1.000229835510254
sg8
F0.0004272719685433224
ssS'abseta:[2.1,2.4]'
p539
(dp540
g7
F1.0008111000061035
sg8
F0.0013292851932476541
ssS'abseta:[0.9,1.2]'
p541
(dp542
g7
F0.9986366033554077
sg8
F0.0006730796247206403
ssssS'abseta_pt_ratio'
p543
(dp544
S'abseta:[0.0,0.9]'
p545
(dp546
S'pt:[25.0,30.0]'
p547
(dp548
g7
F1.0013055801391602
sg8
F0.0014783415872335357
ssS'pt:[30.0,40.0]'
p549
(dp550
g7
F1.0009783506393433
sg8
F0.0004719471332202453
ssS'pt:[60.0,120.0]'
p551
(dp552
g7
F0.9995772838592529
sg8
F0.000522303081217241
ssS'pt:[20.0,25.0]'
p553
(dp554
g7
F1.0029964447021484
sg8
F0.002697022642874456
ssS'pt:[40.0,50.0]'
p555
(dp556
g7
F0.999563992023468
sg8
F0.00014652953255554383
ssS'pt:[50.0,60.0]'
p557
(dp558
g7
F1.0011109113693237
sg8
F0.00040072213954046333
sssS'abseta:[1.2,2.1]'
p559
(dp560
S'pt:[25.0,30.0]'
p561
(dp562
g7
F1.002827525138855
sg8
F0.0013585324486888616
ssS'pt:[30.0,40.0]'
p563
(dp564
g7
F1.0022536516189575
sg8
F0.0005080957666545417
ssS'pt:[60.0,120.0]'
p565
(dp566
g7
F0.9998029470443726
sg8
F0.000556054494055548
ssS'pt:[20.0,25.0]'
p567
(dp568
g7
F0.9984506964683533
sg8
F0.001945992978943267
ssS'pt:[40.0,50.0]'
p569
(dp570
g7
F1.0001552104949951
sg8
F0.00013529923361854676
ssS'pt:[50.0,60.0]'
p571
(dp572
g7
F1.000229835510254
sg8
F0.0004272719685433224
sssS'abseta:[2.1,2.4]'
p573
(dp574
S'pt:[25.0,30.0]'
p575
(dp576
g7
F0.9993618130683899
sg8
F0.002398188808737608
ssS'pt:[30.0,40.0]'
p577
(dp578
g7
F0.9990622401237488
sg8
F0.0010362297219359403
ssS'pt:[60.0,120.0]'
p579
(dp580
g7
F1.0018373727798462
sg8
F0.0015235568984717145
ssS'pt:[20.0,25.0]'
p581
(dp582
g7
F1.0021040439605713
sg8
F0.003865083192207926
ssS'pt:[40.0,50.0]'
p583
(dp584
g7
F1.0004111528396606
sg8
F0.0005100426065425211
ssS'pt:[50.0,60.0]'
p585
(dp586
g7
F1.0008111000061035
sg8
F0.0013292851932476541
sssS'abseta:[0.9,1.2]'
p587
(dp588
S'pt:[25.0,30.0]'
p589
(dp590
g7
F0.9992221593856812
sg8
F0.0026591592642364907
ssS'pt:[30.0,40.0]'
p591
(dp592
g7
F1.0020567178726196
sg8
F0.0008638115568878934
ssS'pt:[60.0,120.0]'
p593
(dp594
g7
F1.0003364086151123
sg8
F0.00090739307465246
ssS'pt:[20.0,25.0]'
p595
(dp596
g7
F1.0081968307495117
sg8
F0.004294808620553118
ssS'pt:[40.0,50.0]'
p597
(dp598
g7
F1.0003796815872192
sg8
F0.0011528108138915663
ssS'pt:[50.0,60.0]'
p599
(dp600
g7
F0.9986366033554077
sg8
F0.0006730796247206403
sssssS'NUM_TightRelIso_DEN_MediumID_PAR_eta'
p601
(dp602
S'eta_ratio'
p603
(dp604
S'eta:[-0.2,0.2]'
p605
(dp606
g7
F1.000447154045105
sg8
F0.0008440173929277156
ssS'eta:[-2.4,-2.1]'
p607
(dp608
g7
F0.9993442893028259
sg8
F0.0013390574576118439
ssS'eta:[0.3,0.9]'
p609
(dp610
g7
F1.000854253768921
sg8
F0.0006584070294406756
ssS'eta:[-0.9,-0.3]'
p611
(dp612
g7
F1.0009393692016602
sg8
F0.0006590587910731316
ssS'eta:[0.2,0.3]'
p613
(dp614
g7
F1.0002670288085938
sg8
F0.001664965933730572
ssS'eta:[0.9,1.2]'
p615
(dp616
g7
F1.0026776790618896
sg8
F0.0009438906975832304
ssS'eta:[-1.2,-0.9]'
p617
(dp618
g7
F1.0023514032363892
sg8
F0.0009287437815756289
ssS'eta:[2.1,2.4]'
p619
(dp620
g7
F0.9951679110527039
sg8
F0.0013308922150748286
ssS'eta:[-1.6,-1.2]'
p621
(dp622
g7
F1.0020179748535156
sg8
F0.0007941700728838278
ssS'eta:[1.2,1.6]'
p623
(dp624
g7
F1.0017725229263306
sg8
F0.0008019379071592166
ssS'eta:[-2.1,-1.6]'
p625
(dp626
g7
F0.999723494052887
sg8
F0.0007725202789857409
ssS'eta:[-0.3,-0.2]'
p627
(dp628
g7
F0.9998173713684082
sg8
F0.001692433175469906
ssS'eta:[1.6,2.1]'
p629
(dp630
g7
F0.9969748258590698
sg8
F0.000781204948460968
ssssS'NUM_TightRelIso_DEN_TightID_PAR_eta'
p631
(dp632
S'eta_ratio'
p633
(dp634
S'eta:[-0.2,0.2]'
p635
(dp636
g7
F1.000536322593689
sg8
F0.0008739652345542569
ssS'eta:[-2.4,-2.1]'
p637
(dp638
g7
F0.9999037384986877
sg8
F0.001429066246206522
ssS'eta:[0.3,0.9]'
p639
(dp640
g7
F1.0008476972579956
sg8
F0.0006833309512200559
ssS'eta:[-0.9,-0.3]'
p641
(dp642
g7
F1.000914454460144
sg8
F0.0006832486674259432
ssS'eta:[0.2,0.3]'
p643
(dp644
g7
F0.9987605214118958
sg8
F0.0017953138156848964
ssS'eta:[0.9,1.2]'
p645
(dp646
g7
F1.0025416612625122
sg8
F0.000989438829362996
ssS'eta:[-1.2,-0.9]'
p647
(dp648
g7
F1.0026381015777588
sg8
F0.0009691406519696918
ssS'eta:[2.1,2.4]'
p649
(dp650
g7
F0.9957051873207092
sg8
F0.0014036359735531134
ssS'eta:[-1.6,-1.2]'
p651
(dp652
g7
F1.0013235807418823
sg8
F0.000833741264652007
ssS'eta:[1.2,1.6]'
p653
(dp654
g7
F1.0022029876708984
sg8
F0.0008508363850214053
ssS'eta:[-2.1,-1.6]'
p655
(dp656
g7
F0.9995664954185486
sg8
F0.0008174769678839252
ssS'eta:[-0.3,-0.2]'
p657
(dp658
g7
F0.9999579191207886
sg8
F0.0018179161463332937
ssS'eta:[1.6,2.1]'
p659
(dp660
g7
F0.996585488319397
sg8
F0.0008206134060683855
ssssS'NUM_LooseRelIso_DEN_TightID_PAR_eta'
p661
(dp662
S'eta_ratio'
p663
(dp664
S'eta:[-0.2,0.2]'
p665
(dp666
g7
F1.0002586841583252
sg8
F0.0005183107669489047
ssS'eta:[-2.4,-2.1]'
p667
(dp668
g7
F0.9997405409812927
sg8
F0.0008138847885416304
ssS'eta:[0.3,0.9]'
p669
(dp670
g7
F1.0009489059448242
sg8
F0.00040463025676413156
ssS'eta:[-0.9,-0.3]'
p671
(dp672
g7
F1.0011849403381348
sg8
F0.00041072106603425696
ssS'eta:[0.2,0.3]'
p673
(dp674
g7
F1.0004521608352661
sg8
F0.001072356330576822
ssS'eta:[0.9,1.2]'
p675
(dp676
g7
F1.0011119842529297
sg8
F0.0005918965533045837
ssS'eta:[-1.2,-0.9]'
p677
(dp678
g7
F1.0009682178497314
sg8
F0.0005836925683717766
ssS'eta:[2.1,2.4]'
p679
(dp680
g7
F0.9996621012687683
sg8
F0.0007939179599976634
ssS'eta:[-1.6,-1.2]'
p681
(dp682
g7
F1.0005072355270386
sg8
F0.0005110193319980979
ssS'eta:[1.2,1.6]'
p683
(dp684
g7
F1.0016649961471558
sg8
F0.0005410756964677874
ssS'eta:[-2.1,-1.6]'
p685
(dp686
g7
F1.0001112222671509
sg8
F0.0004845387043380857
ssS'eta:[-0.3,-0.2]'
p687
(dp688
g7
F1.002315878868103
sg8
F0.0010922558150626247
ssS'eta:[1.6,2.1]'
p689
(dp690
g7
F1.0004081726074219
sg8
F0.0004818878632292266
ssssS'NUM_TightRelIso_DEN_TightID_PAR_pt_spliteta_bin1'
p691
(dp692
S'pt_abseta_ratio'
p693
(dp694
S'pt:[25.0,30.0]'
p695
(dp696
S'abseta:[0.0,0.9]'
p697
(dp698
g7
F0.9995378255844116
sg8
F0.0022512071035640673
ssS'abseta:[1.2,2.1]'
p699
(dp700
g7
F1.0006532669067383
sg8
F0.002067755362435184
ssS'abseta:[2.1,2.4]'
p701
(dp702
g7
F0.9939026832580566
sg8
F0.004261971076013437
ssS'abseta:[0.9,1.2]'
p703
(dp704
g7
F1.002331256866455
sg8
F0.004003683572512011
sssS'pt:[30.0,40.0]'
p705
(dp706
S'abseta:[0.0,0.9]'
p707
(dp708
g7
F1.000901222229004
sg8
F0.0007979481788689052
ssS'abseta:[1.2,2.1]'
p709
(dp710
g7
F1.0023553371429443
sg8
F0.0008445520691793605
ssS'abseta:[2.1,2.4]'
p711
(dp712
g7
F0.997478187084198
sg8
F0.001781225374381486
ssS'abseta:[0.9,1.2]'
p713
(dp714
g7
F1.004658579826355
sg8
F0.0014502638048416372
sssS'pt:[60.0,120.0]'
p715
(dp716
S'abseta:[0.0,0.9]'
p717
(dp718
g7
F0.9986850023269653
sg8
F0.0008907575174433545
ssS'abseta:[1.2,2.1]'
p719
(dp720
g7
F1.0004935264587402
sg8
F0.0009382223143922724
ssS'abseta:[2.1,2.4]'
p721
(dp722
g7
F1.0010104179382324
sg8
F0.0022795762936220253
ssS'abseta:[0.9,1.2]'
p723
(dp724
g7
F1.0054655075073242
sg8
F0.001589130019220112
sssS'pt:[20.0,25.0]'
p725
(dp726
S'abseta:[0.0,0.9]'
p727
(dp728
g7
F1.0043761730194092
sg8
F0.003959090391076143
ssS'abseta:[1.2,2.1]'
p729
(dp730
g7
F0.9970762133598328
sg8
F0.003109125287470401
ssS'abseta:[2.1,2.4]'
p731
(dp732
g7
F0.9957730770111084
sg8
F0.006137193387970902
ssS'abseta:[0.9,1.2]'
p733
(dp734
g7
F1.004357933998108
sg8
F0.006125539530136138
sssS'pt:[40.0,50.0]'
p735
(dp736
S'abseta:[0.0,0.9]'
p737
(dp738
g7
F0.9986253976821899
sg8
F0.0004518361024064332
ssS'abseta:[1.2,2.1]'
p739
(dp740
g7
F0.999933660030365
sg8
F0.0004309914887707696
ssS'abseta:[2.1,2.4]'
p741
(dp742
g7
F1.002805233001709
sg8
F0.001100242856214239
ssS'abseta:[0.9,1.2]'
p743
(dp744
g7
F1.0013608932495117
sg8
F0.0004888604573095644
sssS'pt:[50.0,60.0]'
p745
(dp746
S'abseta:[0.0,0.9]'
p747
(dp748
g7
F1.0002487897872925
sg8
F0.000772847340102783
ssS'abseta:[1.2,2.1]'
p749
(dp750
g7
F1.0002963542938232
sg8
F0.0007614160360063238
ssS'abseta:[2.1,2.4]'
p751
(dp752
g7
F1.0043764114379883
sg8
F0.001806526581100641
ssS'abseta:[0.9,1.2]'
p753
(dp754
g7
F0.9986217021942139
sg8
F0.0012396364566794034
ssssS'abseta_pt_ratio'
p755
(dp756
S'abseta:[0.0,0.9]'
p757
(dp758
S'pt:[25.0,30.0]'
p759
(dp760
g7
F0.9995378255844116
sg8
F0.0022512071035640673
ssS'pt:[30.0,40.0]'
p761
(dp762
g7
F1.000901222229004
sg8
F0.0007979481788689052
ssS'pt:[60.0,120.0]'
p763
(dp764
g7
F0.9986850023269653
sg8
F0.0008907575174433545
ssS'pt:[20.0,25.0]'
p765
(dp766
g7
F1.0043761730194092
sg8
F0.003959090391076143
ssS'pt:[40.0,50.0]'
p767
(dp768
g7
F0.9986253976821899
sg8
F0.0004518361024064332
ssS'pt:[50.0,60.0]'
p769
(dp770
g7
F1.0002487897872925
sg8
F0.000772847340102783
sssS'abseta:[1.2,2.1]'
p771
(dp772
S'pt:[25.0,30.0]'
p773
(dp774
g7
F1.0006532669067383
sg8
F0.002067755362435184
ssS'pt:[30.0,40.0]'
p775
(dp776
g7
F1.0023553371429443
sg8
F0.0008445520691793605
ssS'pt:[60.0,120.0]'
p777
(dp778
g7
F1.0004935264587402
sg8
F0.0009382223143922724
ssS'pt:[20.0,25.0]'
p779
(dp780
g7
F0.9970762133598328
sg8
F0.003109125287470401
ssS'pt:[40.0,50.0]'
p781
(dp782
g7
F0.999933660030365
sg8
F0.0004309914887707696
ssS'pt:[50.0,60.0]'
p783
(dp784
g7
F1.0002963542938232
sg8
F0.0007614160360063238
sssS'abseta:[2.1,2.4]'
p785
(dp786
S'pt:[25.0,30.0]'
p787
(dp788
g7
F0.9939026832580566
sg8
F0.004261971076013437
ssS'pt:[30.0,40.0]'
p789
(dp790
g7
F0.997478187084198
sg8
F0.001781225374381486
ssS'pt:[60.0,120.0]'
p791
(dp792
g7
F1.0010104179382324
sg8
F0.0022795762936220253
ssS'pt:[20.0,25.0]'
p793
(dp794
g7
F0.9957730770111084
sg8
F0.006137193387970902
ssS'pt:[40.0,50.0]'
p795
(dp796
g7
F1.002805233001709
sg8
F0.001100242856214239
ssS'pt:[50.0,60.0]'
p797
(dp798
g7
F1.0043764114379883
sg8
F0.001806526581100641
sssS'abseta:[0.9,1.2]'
p799
(dp800
S'pt:[25.0,30.0]'
p801
(dp802
g7
F1.002331256866455
sg8
F0.004003683572512011
ssS'pt:[30.0,40.0]'
p803
(dp804
g7
F1.004658579826355
sg8
F0.0014502638048416372
ssS'pt:[60.0,120.0]'
p805
(dp806
g7
F1.0054655075073242
sg8
F0.001589130019220112
ssS'pt:[20.0,25.0]'
p807
(dp808
g7
F1.004357933998108
sg8
F0.006125539530136138
ssS'pt:[40.0,50.0]'
p809
(dp810
g7
F1.0013608932495117
sg8
F0.0004888604573095644
ssS'pt:[50.0,60.0]'
p811
(dp812
g7
F0.9986217021942139
sg8
F0.0012396364566794034
sssssS'NUM_LooseRelIso_DEN_LooseID_PAR_eta'
p813
(dp814
S'eta_ratio'
p815
(dp816
S'eta:[-0.2,0.2]'
p817
(dp818
g7
F1.0002472400665283
sg8
F0.0005175646442793342
ssS'eta:[-2.4,-2.1]'
p819
(dp820
g7
F0.9997360706329346
sg8
F0.0008131477963336547
ssS'eta:[0.3,0.9]'
p821
(dp822
g7
F1.0010515451431274
sg8
F0.0004040724632055909
ssS'eta:[-0.9,-0.3]'
p823
(dp824
g7
F1.0012149810791016
sg8
F0.0004121665921174832
ssS'eta:[0.2,0.3]'
p825
(dp826
g7
F1.000590443611145
sg8
F0.0010322423091236967
ssS'eta:[0.9,1.2]'
p827
(dp828
g7
F1.0009636878967285
sg8
F0.000590497710006073
ssS'eta:[-1.2,-0.9]'
p829
(dp830
g7
F1.0011017322540283
sg8
F0.0005796351399127847
ssS'eta:[2.1,2.4]'
p831
(dp832
g7
F0.9996363520622253
sg8
F0.0007907883696377433
ssS'eta:[-1.6,-1.2]'
p833
(dp834
g7
F1.000543236732483
sg8
F0.0005099401172195255
ssS'eta:[1.2,1.6]'
p835
(dp836
g7
F1.0016638040542603
sg8
F0.0005402369319265808
ssS'eta:[-2.1,-1.6]'
p837
(dp838
g7
F1.0001639127731323
sg8
F0.00048256910743926356
ssS'eta:[-0.3,-0.2]'
p839
(dp840
g7
F1.0020829439163208
sg8
F0.001025294634126657
ssS'eta:[1.6,2.1]'
p841
(dp842
g7
F1.0004197359085083
sg8
F0.0004826907813652928
ssssS'NUM_TightRelIso_DEN_TightID_PAR_pt_alleta_bin1'
p843
(dp844
S'pt_ratio'
p845
(dp846
S'pt:[25.0,30.0]'
p847
(dp848
g7
F1.0003052949905396
sg8
F0.0013664622952223335
ssS'pt:[30.0,40.0]'
p849
(dp850
g7
F1.0015815496444702
sg8
F0.0005202043411365738
ssS'pt:[80.0,120.0]'
p851
(dp852
g7
F0.9990498423576355
sg8
F0.0011167936356183809
ssS'pt:[120.0,200.0]'
p853
(dp854
g7
F1.0053768157958984
sg8
F0.003277217806257504
ssS'pt:[60.0,80.0]'
p855
(dp856
g7
F1.0004442930221558
sg8
F0.0006729246800653614
ssS'pt:[20.0,25.0]'
p857
(dp858
g7
F1.0011646747589111
sg8
F0.002141677843226063
ssS'pt:[40.0,50.0]'
p859
(dp860
g7
F0.9996687173843384
sg8
F7.173414896825411e-06
ssS'pt:[50.0,60.0]'
p861
(dp862
g7
F1.0001661777496338
sg8
F0.00048219805888586676
ssss.