(dp0
S'NUM_LooseID_DEN_genTracks_PAR_pt_spliteta_bin1'
p1
(dp2
S'pt_abseta_ratio'
p3
(dp4
S'pt:[25.0,30.0]'
p5
(dp6
S'abseta:[0.0,0.9]'
p7
(dp8
S'value'
p9
F0.99321049451828
sS'error'
p10
F0.0011055782087966714
ssS'abseta:[1.2,2.1]'
p11
(dp12
g9
F0.9959472417831421
sg10
F0.0011703408377733398
ssS'abseta:[2.1,2.4]'
p13
(dp14
g9
F0.9931564927101135
sg10
F0.002443964514214304
ssS'abseta:[0.9,1.2]'
p15
(dp16
g9
F0.9930336475372314
sg10
F0.002030384666413669
sssS'pt:[30.0,40.0]'
p17
(dp18
S'abseta:[0.0,0.9]'
p19
(dp20
g9
F0.9978406429290771
sg10
F0.00030085647303475027
ssS'abseta:[1.2,2.1]'
p21
(dp22
g9
F0.9986226558685303
sg10
F0.0003983177208424227
ssS'abseta:[2.1,2.4]'
p23
(dp24
g9
F0.9958829879760742
sg10
F0.0010036017286035094
ssS'abseta:[0.9,1.2]'
p25
(dp26
g9
F0.9970052242279053
sg10
F0.0005914373468172853
sssS'pt:[60.0,120.0]'
p27
(dp28
S'abseta:[0.0,0.9]'
p29
(dp30
g9
F0.9991089105606079
sg10
F0.0013970545733599567
ssS'abseta:[1.2,2.1]'
p31
(dp32
g9
F1.0007489919662476
sg10
F0.0016929141245890773
ssS'abseta:[2.1,2.4]'
p33
(dp34
g9
F1.0001412630081177
sg10
F0.010127272207232552
ssS'abseta:[0.9,1.2]'
p35
(dp36
g9
F0.9999018907546997
sg10
F0.0025239172940766615
sssS'pt:[20.0,25.0]'
p37
(dp38
S'abseta:[0.0,0.9]'
p39
(dp40
g9
F0.9855313897132874
sg10
F0.0025857207589580927
ssS'abseta:[1.2,2.1]'
p41
(dp42
g9
F1.0008281469345093
sg10
F0.00041628854762998813
ssS'abseta:[2.1,2.4]'
p43
(dp44
g9
F1.000418782234192
sg10
F0.004228367068434378
ssS'abseta:[0.9,1.2]'
p45
(dp46
g9
F0.9967131614685059
sg10
F0.0038540071044748155
sssS'pt:[40.0,50.0]'
p47
(dp48
S'abseta:[0.0,0.9]'
p49
(dp50
g9
F0.9986774325370789
sg10
F0.0020699669694531743
ssS'abseta:[1.2,2.1]'
p51
(dp52
g9
F0.9991121292114258
sg10
F0.00022909925366406707
ssS'abseta:[2.1,2.4]'
p53
(dp54
g9
F0.9963051080703735
sg10
F0.0008026731752558733
ssS'abseta:[0.9,1.2]'
p55
(dp56
g9
F0.9979928135871887
sg10
F0.00033041698173930095
sssS'pt:[50.0,60.0]'
p57
(dp58
S'abseta:[0.0,0.9]'
p59
(dp60
g9
F0.9962952136993408
sg10
F0.0005875918970945443
ssS'abseta:[1.2,2.1]'
p61
(dp62
g9
F0.9961471557617188
sg10
F0.004028990188838358
ssS'abseta:[2.1,2.4]'
p63
(dp64
g9
F0.9898096323013306
sg10
F0.002625542653614785
ssS'abseta:[0.9,1.2]'
p65
(dp66
g9
F0.9988929033279419
sg10
F0.0009884578713132953
ssssS'abseta_pt_ratio'
p67
(dp68
S'abseta:[0.0,0.9]'
p69
(dp70
S'pt:[25.0,30.0]'
p71
(dp72
g9
F0.99321049451828
sg10
F0.0011055782087966714
ssS'pt:[30.0,40.0]'
p73
(dp74
g9
F0.9978406429290771
sg10
F0.00030085647303475027
ssS'pt:[60.0,120.0]'
p75
(dp76
g9
F0.9991089105606079
sg10
F0.0013970545733599567
ssS'pt:[20.0,25.0]'
p77
(dp78
g9
F0.9855313897132874
sg10
F0.0025857207589580927
ssS'pt:[40.0,50.0]'
p79
(dp80
g9
F0.9986774325370789
sg10
F0.0020699669694531743
ssS'pt:[50.0,60.0]'
p81
(dp82
g9
F0.9962952136993408
sg10
F0.0005875918970945443
sssS'abseta:[1.2,2.1]'
p83
(dp84
S'pt:[25.0,30.0]'
p85
(dp86
g9
F0.9959472417831421
sg10
F0.0011703408377733398
ssS'pt:[30.0,40.0]'
p87
(dp88
g9
F0.9986226558685303
sg10
F0.0003983177208424227
ssS'pt:[60.0,120.0]'
p89
(dp90
g9
F1.0007489919662476
sg10
F0.0016929141245890773
ssS'pt:[20.0,25.0]'
p91
(dp92
g9
F1.0008281469345093
sg10
F0.00041628854762998813
ssS'pt:[40.0,50.0]'
p93
(dp94
g9
F0.9991121292114258
sg10
F0.00022909925366406707
ssS'pt:[50.0,60.0]'
p95
(dp96
g9
F0.9961471557617188
sg10
F0.004028990188838358
sssS'abseta:[2.1,2.4]'
p97
(dp98
S'pt:[25.0,30.0]'
p99
(dp100
g9
F0.9931564927101135
sg10
F0.002443964514214304
ssS'pt:[30.0,40.0]'
p101
(dp102
g9
F0.9958829879760742
sg10
F0.0010036017286035094
ssS'pt:[60.0,120.0]'
p103
(dp104
g9
F1.0001412630081177
sg10
F0.010127272207232552
ssS'pt:[20.0,25.0]'
p105
(dp106
g9
F1.000418782234192
sg10
F0.004228367068434378
ssS'pt:[40.0,50.0]'
p107
(dp108
g9
F0.9963051080703735
sg10
F0.0008026731752558733
ssS'pt:[50.0,60.0]'
p109
(dp110
g9
F0.9898096323013306
sg10
F0.002625542653614785
sssS'abseta:[0.9,1.2]'
p111
(dp112
S'pt:[25.0,30.0]'
p113
(dp114
g9
F0.9930336475372314
sg10
F0.002030384666413669
ssS'pt:[30.0,40.0]'
p115
(dp116
g9
F0.9970052242279053
sg10
F0.0005914373468172853
ssS'pt:[60.0,120.0]'
p117
(dp118
g9
F0.9999018907546997
sg10
F0.0025239172940766615
ssS'pt:[20.0,25.0]'
p119
(dp120
g9
F0.9967131614685059
sg10
F0.0038540071044748155
ssS'pt:[40.0,50.0]'
p121
(dp122
g9
F0.9979928135871887
sg10
F0.00033041698173930095
ssS'pt:[50.0,60.0]'
p123
(dp124
g9
F0.9988929033279419
sg10
F0.0009884578713132953
sssssS'NUM_MediumID_DEN_genTracks_PAR_pt_spliteta_bin1'
p125
(dp126
S'pt_abseta_ratio'
p127
(dp128
S'pt:[25.0,30.0]'
p129
(dp130
S'abseta:[0.0,0.9]'
p131
(dp132
g9
F0.9848145842552185
sg10
F0.001290945415659455
ssS'abseta:[1.2,2.1]'
p133
(dp134
g9
F0.9913045763969421
sg10
F0.0012557686620512445
ssS'abseta:[2.1,2.4]'
p135
(dp136
g9
F0.9677559733390808
sg10
F0.003017063942248565
ssS'abseta:[0.9,1.2]'
p137
(dp138
g9
F0.9857050776481628
sg10
F0.0022352052935438993
sssS'pt:[30.0,40.0]'
p139
(dp140
S'abseta:[0.0,0.9]'
p141
(dp142
g9
F0.9895508289337158
sg10
F0.0004331525546993884
ssS'abseta:[1.2,2.1]'
p143
(dp144
g9
F0.9932653903961182
sg10
F0.00047076468154621745
ssS'abseta:[2.1,2.4]'
p145
(dp146
g9
F0.9679496884346008
sg10
F0.001433179514184055
ssS'abseta:[0.9,1.2]'
p147
(dp148
g9
F0.9917845129966736
sg10
F0.0007618769816042719
sssS'pt:[60.0,120.0]'
p149
(dp150
S'abseta:[0.0,0.9]'
p151
(dp152
g9
F0.9913212656974792
sg10
F0.0016589422525152388
ssS'abseta:[1.2,2.1]'
p153
(dp154
g9
F0.9955874085426331
sg10
F0.002450189400646501
ssS'abseta:[2.1,2.4]'
p155
(dp156
g9
F0.9747697710990906
sg10
F0.01065126483901303
ssS'abseta:[0.9,1.2]'
p157
(dp158
g9
F0.9922217726707458
sg10
F0.0028402481587021917
sssS'pt:[20.0,25.0]'
p159
(dp160
S'abseta:[0.0,0.9]'
p161
(dp162
g9
F0.9794142842292786
sg10
F0.002741508660046282
ssS'abseta:[1.2,2.1]'
p163
(dp164
g9
F0.9957935214042664
sg10
F0.0021833565538039194
ssS'abseta:[2.1,2.4]'
p165
(dp166
g9
F0.9767289161682129
sg10
F0.004725463342112523
ssS'abseta:[0.9,1.2]'
p167
(dp168
g9
F0.9879737496376038
sg10
F0.004043517161003101
sssS'pt:[40.0,50.0]'
p169
(dp170
S'abseta:[0.0,0.9]'
p171
(dp172
g9
F0.9913147687911987
sg10
F0.00031971235747509097
ssS'abseta:[1.2,2.1]'
p173
(dp174
g9
F0.9944870471954346
sg10
F0.0003082350400714759
ssS'abseta:[2.1,2.4]'
p175
(dp176
g9
F0.9651092290878296
sg10
F0.0013090371257890464
ssS'abseta:[0.9,1.2]'
p177
(dp178
g9
F0.9923620223999023
sg10
F0.0005198001949915494
sssS'pt:[50.0,60.0]'
p179
(dp180
S'abseta:[0.0,0.9]'
p181
(dp182
g9
F0.9875446557998657
sg10
F0.0008303723453658396
ssS'abseta:[1.2,2.1]'
p183
(dp184
g9
F0.9912225008010864
sg10
F0.0009381904855814878
ssS'abseta:[2.1,2.4]'
p185
(dp186
g9
F0.9578791856765747
sg10
F0.003330288308070361
ssS'abseta:[0.9,1.2]'
p187
(dp188
g9
F0.9917807579040527
sg10
F0.0013459997816068128
ssssS'abseta_pt_ratio'
p189
(dp190
S'abseta:[0.0,0.9]'
p191
(dp192
S'pt:[25.0,30.0]'
p193
(dp194
g9
F0.9848145842552185
sg10
F0.001290945415659455
ssS'pt:[30.0,40.0]'
p195
(dp196
g9
F0.9895508289337158
sg10
F0.0004331525546993884
ssS'pt:[60.0,120.0]'
p197
(dp198
g9
F0.9913212656974792
sg10
F0.0016589422525152388
ssS'pt:[20.0,25.0]'
p199
(dp200
g9
F0.9794142842292786
sg10
F0.002741508660046282
ssS'pt:[40.0,50.0]'
p201
(dp202
g9
F0.9913147687911987
sg10
F0.00031971235747509097
ssS'pt:[50.0,60.0]'
p203
(dp204
g9
F0.9875446557998657
sg10
F0.0008303723453658396
sssS'abseta:[1.2,2.1]'
p205
(dp206
S'pt:[25.0,30.0]'
p207
(dp208
g9
F0.9913045763969421
sg10
F0.0012557686620512445
ssS'pt:[30.0,40.0]'
p209
(dp210
g9
F0.9932653903961182
sg10
F0.00047076468154621745
ssS'pt:[60.0,120.0]'
p211
(dp212
g9
F0.9955874085426331
sg10
F0.002450189400646501
ssS'pt:[20.0,25.0]'
p213
(dp214
g9
F0.9957935214042664
sg10
F0.0021833565538039194
ssS'pt:[40.0,50.0]'
p215
(dp216
g9
F0.9944870471954346
sg10
F0.0003082350400714759
ssS'pt:[50.0,60.0]'
p217
(dp218
g9
F0.9912225008010864
sg10
F0.0009381904855814878
sssS'abseta:[2.1,2.4]'
p219
(dp220
S'pt:[25.0,30.0]'
p221
(dp222
g9
F0.9677559733390808
sg10
F0.003017063942248565
ssS'pt:[30.0,40.0]'
p223
(dp224
g9
F0.9679496884346008
sg10
F0.001433179514184055
ssS'pt:[60.0,120.0]'
p225
(dp226
g9
F0.9747697710990906
sg10
F0.01065126483901303
ssS'pt:[20.0,25.0]'
p227
(dp228
g9
F0.9767289161682129
sg10
F0.004725463342112523
ssS'pt:[40.0,50.0]'
p229
(dp230
g9
F0.9651092290878296
sg10
F0.0013090371257890464
ssS'pt:[50.0,60.0]'
p231
(dp232
g9
F0.9578791856765747
sg10
F0.003330288308070361
sssS'abseta:[0.9,1.2]'
p233
(dp234
S'pt:[25.0,30.0]'
p235
(dp236
g9
F0.9857050776481628
sg10
F0.0022352052935438993
ssS'pt:[30.0,40.0]'
p237
(dp238
g9
F0.9917845129966736
sg10
F0.0007618769816042719
ssS'pt:[60.0,120.0]'
p239
(dp240
g9
F0.9922217726707458
sg10
F0.0028402481587021917
ssS'pt:[20.0,25.0]'
p241
(dp242
g9
F0.9879737496376038
sg10
F0.004043517161003101
ssS'pt:[40.0,50.0]'
p243
(dp244
g9
F0.9923620223999023
sg10
F0.0005198001949915494
ssS'pt:[50.0,60.0]'
p245
(dp246
g9
F0.9917807579040527
sg10
F0.0013459997816068128
sssssS'NUM_TightIDandIPCut_DEN_genTracks_PAR_pt_spliteta_bin1'
p247
(dp248
S'pt_abseta_ratio'
p249
(dp250
S'pt:[25.0,30.0]'
p251
(dp252
S'abseta:[0.0,0.9]'
p253
(dp254
g9
F0.9848297238349915
sg10
F0.0016307213764927449
ssS'abseta:[1.2,2.1]'
p255
(dp256
g9
F0.9905462265014648
sg10
F0.001402578599690647
ssS'abseta:[2.1,2.4]'
p257
(dp258
g9
F0.9802553653717041
sg10
F0.003173276637083633
ssS'abseta:[0.9,1.2]'
p259
(dp260
g9
F0.978645384311676
sg10
F0.0027064755458685794
sssS'pt:[30.0,40.0]'
p261
(dp262
S'abseta:[0.0,0.9]'
p263
(dp264
g9
F0.9861794114112854
sg10
F0.0006187187412138267
ssS'abseta:[1.2,2.1]'
p265
(dp266
g9
F0.9923668503761292
sg10
F0.0005653311393042486
ssS'abseta:[2.1,2.4]'
p267
(dp268
g9
F0.9785045385360718
sg10
F0.0015542030446523895
ssS'abseta:[0.9,1.2]'
p269
(dp270
g9
F0.9798933267593384
sg10
F0.001057081371390319
sssS'pt:[60.0,120.0]'
p271
(dp272
S'abseta:[0.0,0.9]'
p273
(dp274
g9
F0.9863178730010986
sg10
F0.002073330940717176
ssS'abseta:[1.2,2.1]'
p275
(dp276
g9
F0.9950451850891113
sg10
F0.002673833447209764
ssS'abseta:[2.1,2.4]'
p277
(dp278
g9
F0.9689615368843079
sg10
F0.011084748199568817
ssS'abseta:[0.9,1.2]'
p279
(dp280
g9
F0.9795225858688354
sg10
F0.0035622593553725837
sssS'pt:[20.0,25.0]'
p281
(dp282
S'abseta:[0.0,0.9]'
p283
(dp284
g9
F0.9752116203308105
sg10
F0.0030660638813280626
ssS'abseta:[1.2,2.1]'
p285
(dp286
g9
F0.9983288645744324
sg10
F0.002331323348626783
ssS'abseta:[2.1,2.4]'
p287
(dp288
g9
F0.9877836108207703
sg10
F0.004915740433340289
ssS'abseta:[0.9,1.2]'
p289
(dp290
g9
F0.9738101959228516
sg10
F0.004502934246978295
sssS'pt:[40.0,50.0]'
p291
(dp292
S'abseta:[0.0,0.9]'
p293
(dp294
g9
F0.987443208694458
sg10
F0.000494159746725046
ssS'abseta:[1.2,2.1]'
p295
(dp296
g9
F0.9927627444267273
sg10
F0.0004155573807947332
ssS'abseta:[2.1,2.4]'
p297
(dp298
g9
F0.9778544902801514
sg10
F0.001456799997296391
ssS'abseta:[0.9,1.2]'
p299
(dp300
g9
F0.980233907699585
sg10
F0.000819615406448897
sssS'pt:[50.0,60.0]'
p301
(dp302
S'abseta:[0.0,0.9]'
p303
(dp304
g9
F0.9834294319152832
sg10
F0.0011818999573518245
ssS'abseta:[1.2,2.1]'
p305
(dp306
g9
F0.9886322021484375
sg10
F0.0011254961157344963
ssS'abseta:[2.1,2.4]'
p307
(dp308
g9
F0.9654409885406494
sg10
F0.003709169009223743
ssS'abseta:[0.9,1.2]'
p309
(dp310
g9
F0.9773300886154175
sg10
F0.001955436343316424
ssssS'abseta_pt_ratio'
p311
(dp312
S'abseta:[0.0,0.9]'
p313
(dp314
S'pt:[25.0,30.0]'
p315
(dp316
g9
F0.9848297238349915
sg10
F0.0016307213764927449
ssS'pt:[30.0,40.0]'
p317
(dp318
g9
F0.9861794114112854
sg10
F0.0006187187412138267
ssS'pt:[60.0,120.0]'
p319
(dp320
g9
F0.9863178730010986
sg10
F0.002073330940717176
ssS'pt:[20.0,25.0]'
p321
(dp322
g9
F0.9752116203308105
sg10
F0.0030660638813280626
ssS'pt:[40.0,50.0]'
p323
(dp324
g9
F0.987443208694458
sg10
F0.000494159746725046
ssS'pt:[50.0,60.0]'
p325
(dp326
g9
F0.9834294319152832
sg10
F0.0011818999573518245
sssS'abseta:[1.2,2.1]'
p327
(dp328
S'pt:[25.0,30.0]'
p329
(dp330
g9
F0.9905462265014648
sg10
F0.001402578599690647
ssS'pt:[30.0,40.0]'
p331
(dp332
g9
F0.9923668503761292
sg10
F0.0005653311393042486
ssS'pt:[60.0,120.0]'
p333
(dp334
g9
F0.9950451850891113
sg10
F0.002673833447209764
ssS'pt:[20.0,25.0]'
p335
(dp336
g9
F0.9983288645744324
sg10
F0.002331323348626783
ssS'pt:[40.0,50.0]'
p337
(dp338
g9
F0.9927627444267273
sg10
F0.0004155573807947332
ssS'pt:[50.0,60.0]'
p339
(dp340
g9
F0.9886322021484375
sg10
F0.0011254961157344963
sssS'abseta:[2.1,2.4]'
p341
(dp342
S'pt:[25.0,30.0]'
p343
(dp344
g9
F0.9802553653717041
sg10
F0.003173276637083633
ssS'pt:[30.0,40.0]'
p345
(dp346
g9
F0.9785045385360718
sg10
F0.0015542030446523895
ssS'pt:[60.0,120.0]'
p347
(dp348
g9
F0.9689615368843079
sg10
F0.011084748199568817
ssS'pt:[20.0,25.0]'
p349
(dp350
g9
F0.9877836108207703
sg10
F0.004915740433340289
ssS'pt:[40.0,50.0]'
p351
(dp352
g9
F0.9778544902801514
sg10
F0.001456799997296391
ssS'pt:[50.0,60.0]'
p353
(dp354
g9
F0.9654409885406494
sg10
F0.003709169009223743
sssS'abseta:[0.9,1.2]'
p355
(dp356
S'pt:[25.0,30.0]'
p357
(dp358
g9
F0.978645384311676
sg10
F0.0027064755458685794
ssS'pt:[30.0,40.0]'
p359
(dp360
g9
F0.9798933267593384
sg10
F0.001057081371390319
ssS'pt:[60.0,120.0]'
p361
(dp362
g9
F0.9795225858688354
sg10
F0.0035622593553725837
ssS'pt:[20.0,25.0]'
p363
(dp364
g9
F0.9738101959228516
sg10
F0.004502934246978295
ssS'pt:[40.0,50.0]'
p365
(dp366
g9
F0.980233907699585
sg10
F0.000819615406448897
ssS'pt:[50.0,60.0]'
p367
(dp368
g9
F0.9773300886154175
sg10
F0.001955436343316424
sssssS'NUM_LooseID_DEN_genTracks_PAR_eta'
p369
(dp370
S'eta_ratio'
p371
(dp372
S'eta:[-0.2,0.2]'
p373
(dp374
g9
F0.9985250234603882
sg10
F0.00040567242089904445
ssS'eta:[-2.4,-2.1]'
p375
(dp376
g9
F0.9935104250907898
sg10
F0.001100763886337122
ssS'eta:[0.3,0.9]'
p377
(dp378
g9
F0.9988965392112732
sg10
F0.00032038609774907915
ssS'eta:[-0.9,-0.3]'
p379
(dp380
g9
F0.9993498921394348
sg10
F0.00031867341519831285
ssS'eta:[0.2,0.3]'
p381
(dp382
g9
F0.9953778982162476
sg10
F0.0009613945835979128
ssS'eta:[0.9,1.2]'
p383
(dp384
g9
F0.997368574142456
sg10
F0.0005134316412091837
ssS'eta:[-1.2,-0.9]'
p385
(dp386
g9
F0.9985405206680298
sg10
F0.0005020324402239767
ssS'eta:[2.1,2.4]'
p387
(dp388
g9
F0.9967795014381409
sg10
F0.0009977016806086846
ssS'eta:[-1.6,-1.2]'
p389
(dp390
g9
F0.9994049072265625
sg10
F0.0004997887831546239
ssS'eta:[1.2,1.6]'
p391
(dp392
g9
F0.9980602264404297
sg10
F0.0005039097178197387
ssS'eta:[-2.1,-1.6]'
p393
(dp394
g9
F0.998405933380127
sg10
F0.0005594094188622284
ssS'eta:[-0.3,-0.2]'
p395
(dp396
g9
F0.9956606030464172
sg10
F0.0009458375927809025
ssS'eta:[1.6,2.1]'
p397
(dp398
g9
F0.9988492727279663
sg10
F0.0005147168470065215
ssssS'NUM_MediumID_DEN_genTracks_PAR_eta'
p399
(dp400
S'eta_ratio'
p401
(dp402
S'eta:[-0.2,0.2]'
p403
(dp404
g9
F0.9877328872680664
sg10
F0.0005888510445272976
ssS'eta:[-2.4,-2.1]'
p405
(dp406
g9
F0.9650035500526428
sg10
F0.00137956314051617
ssS'eta:[0.3,0.9]'
p407
(dp408
g9
F0.9935563802719116
sg10
F0.00041189365886124094
ssS'eta:[-0.9,-0.3]'
p409
(dp410
g9
F0.9925333261489868
sg10
F0.0004156626463501319
ssS'eta:[0.2,0.3]'
p411
(dp412
g9
F0.9892933368682861
sg10
F0.0013454860011210253
ssS'eta:[0.9,1.2]'
p413
(dp414
g9
F0.9910075068473816
sg10
F0.0006432025923694385
ssS'eta:[-1.2,-0.9]'
p415
(dp416
g9
F0.9929901361465454
sg10
F0.0006196464026335875
ssS'eta:[2.1,2.4]'
p417
(dp418
g9
F0.9683111906051636
sg10
F0.0013104386676567447
ssS'eta:[-1.6,-1.2]'
p419
(dp420
g9
F0.9968749284744263
sg10
F0.000559399406181788
ssS'eta:[1.2,1.6]'
p421
(dp422
g9
F0.995147168636322
sg10
F0.0005649877650350609
ssS'eta:[-2.1,-1.6]'
p423
(dp424
g9
F0.9894643425941467
sg10
F0.0006358227645554226
ssS'eta:[-0.3,-0.2]'
p425
(dp426
g9
F0.9815582633018494
sg10
F0.001362469748576286
ssS'eta:[1.6,2.1]'
p427
(dp428
g9
F0.9934214353561401
sg10
F0.0005761745786809526
ssssS'NUM_TightIDandIPCut_DEN_genTracks_PAR_pt_alleta_bin1'
p429
(dp430
S'pt_ratio'
p431
(dp432
S'pt:[25.0,30.0]'
p433
(dp434
g9
F0.9870008826255798
sg10
F0.0009583830905200174
ssS'pt:[30.0,40.0]'
p435
(dp436
g9
F0.9868109822273254
sg10
F0.00039006499917333264
ssS'pt:[80.0,120.0]'
p437
(dp438
g9
F0.9837095141410828
sg10
F0.004028646189034577
ssS'pt:[120.0,200.0]'
p439
(dp440
g9
F1.0015869140625
sg10
F0.02398719242092237
ssS'pt:[60.0,80.0]'
p441
(dp442
g9
F0.9870981574058533
sg10
F0.0015566656510891698
ssS'pt:[20.0,25.0]'
p443
(dp444
g9
F0.9909576773643494
sg10
F0.0016417910830064236
ssS'pt:[40.0,50.0]'
p445
(dp446
g9
F0.9873740673065186
sg10
F0.00030902609432421576
ssS'pt:[50.0,60.0]'
p447
(dp448
g9
F0.9829127192497253
sg10
F0.0007544187844987916
ssssS'NUM_LooseID_DEN_genTracks_PAR_pt_alleta_bin1'
p449
(dp450
S'pt_ratio'
p451
(dp452
S'pt:[25.0,30.0]'
p453
(dp454
g9
F0.9950756430625916
sg10
F0.0007114144246735726
ssS'pt:[30.0,40.0]'
p455
(dp456
g9
F0.9979131817817688
sg10
F0.00021755717442808548
ssS'pt:[80.0,120.0]'
p457
(dp458
g9
F0.9989292621612549
sg10
F0.0034722927067048917
ssS'pt:[120.0,200.0]'
p459
(dp460
g9
F1.0046151876449585
sg10
F0.012196387795829548
ssS'pt:[60.0,80.0]'
p461
(dp462
g9
F0.9999226927757263
sg10
F0.0011230177360165253
ssS'pt:[20.0,25.0]'
p463
(dp464
g9
F0.9995002150535583
sg10
F0.0014189032683466511
ssS'pt:[40.0,50.0]'
p465
(dp466
g9
F0.9985893964767456
sg10
F0.00013016522638641337
ssS'pt:[50.0,60.0]'
p467
(dp468
g9
F0.996336817741394
sg10
F0.00043081817695940483
ssssS'NUM_TightIDandIPCut_DEN_genTracks_PAR_eta'
p469
(dp470
S'eta_ratio'
p471
(dp472
S'eta:[-0.2,0.2]'
p473
(dp474
g9
F0.9905476570129395
sg10
F0.0006824992155910775
ssS'eta:[-2.4,-2.1]'
p475
(dp476
g9
F0.9735393524169922
sg10
F0.0014842015020124163
ssS'eta:[0.3,0.9]'
p477
(dp478
g9
F0.9869073629379272
sg10
F0.0005446151251733759
ssS'eta:[-0.9,-0.3]'
p479
(dp480
g9
F0.9916040301322937
sg10
F0.000526800881271433
ssS'eta:[0.2,0.3]'
p481
(dp482
g9
F0.9684836864471436
sg10
F0.0026239008104998562
ssS'eta:[0.9,1.2]'
p483
(dp484
g9
F0.9742261171340942
sg10
F0.0009018248382812199
ssS'eta:[-1.2,-0.9]'
p485
(dp486
g9
F0.985855221748352
sg10
F0.0008275541673044348
ssS'eta:[2.1,2.4]'
p487
(dp488
g9
F0.981232762336731
sg10
F0.0014098033520722542
ssS'eta:[-1.6,-1.2]'
p489
(dp490
g9
F0.995793342590332
sg10
F0.0006222315849539118
ssS'eta:[1.2,1.6]'
p491
(dp492
g9
F0.9948256611824036
sg10
F0.0006324319841809844
ssS'eta:[-2.1,-1.6]'
p493
(dp494
g9
F0.9871324896812439
sg10
F0.0007644710927447572
ssS'eta:[-0.3,-0.2]'
p495
(dp496
g9
F0.9677518606185913
sg10
F0.002599027208062369
ssS'eta:[1.6,2.1]'
p497
(dp498
g9
F0.9921256303787231
sg10
F0.0007159089244264882
ssssS'NUM_MediumID_DEN_genTracks_PAR_pt_alleta_bin1'
p499
(dp500
S'pt_ratio'
p501
(dp502
S'pt:[25.0,30.0]'
p503
(dp504
g9
F0.9866588115692139
sg10
F0.0008132555024515113
ssS'pt:[30.0,40.0]'
p505
(dp506
g9
F0.9895508885383606
sg10
F0.00029528732443202213
ssS'pt:[80.0,120.0]'
p507
(dp508
g9
F0.9918327927589417
sg10
F0.003617174075847081
ssS'pt:[120.0,200.0]'
p509
(dp510
g9
F1.0056395530700684
sg10
F0.018614253268882698
ssS'pt:[60.0,80.0]'
p511
(dp512
g9
F0.9917315244674683
sg10
F0.0012940534122436677
ssS'pt:[20.0,25.0]'
p513
(dp514
g9
F0.9914879202842712
sg10
F0.001505930010576613
ssS'pt:[40.0,50.0]'
p515
(dp516
g9
F0.9909922480583191
sg10
F0.00021289377309593937
ssS'pt:[50.0,60.0]'
p517
(dp518
g9
F0.9876870512962341
sg10
F0.0005684665701221152
ssss.